
GccApplication1.elf:     file format elf32-avr

Sections:
Idx Name          Size      VMA       LMA       File off  Algn
  0 .data         00000032  00800100  000010e6  0000117a  2**0
                  CONTENTS, ALLOC, LOAD, DATA
  1 .text         000010e6  00000000  00000000  00000094  2**1
                  CONTENTS, ALLOC, LOAD, READONLY, CODE
  2 .bss          000000ca  00800132  00800132  000011ac  2**0
                  ALLOC
  3 .comment      00000030  00000000  00000000  000011ac  2**0
                  CONTENTS, READONLY
  4 .note.gnu.avr.deviceinfo 00000040  00000000  00000000  000011dc  2**2
                  CONTENTS, READONLY
  5 .debug_aranges 000003d8  00000000  00000000  0000121c  2**0
                  CONTENTS, READONLY, DEBUGGING
  6 .debug_info   00003dc7  00000000  00000000  000015f4  2**0
                  CONTENTS, READONLY, DEBUGGING
  7 .debug_abbrev 000015a2  00000000  00000000  000053bb  2**0
                  CONTENTS, READONLY, DEBUGGING
  8 .debug_line   000025d8  00000000  00000000  0000695d  2**0
                  CONTENTS, READONLY, DEBUGGING
  9 .debug_frame  000012c4  00000000  00000000  00008f38  2**2
                  CONTENTS, READONLY, DEBUGGING
 10 .debug_str    00001a16  00000000  00000000  0000a1fc  2**0
                  CONTENTS, READONLY, DEBUGGING
 11 .debug_loc    00002992  00000000  00000000  0000bc12  2**0
                  CONTENTS, READONLY, DEBUGGING
 12 .debug_ranges 000003b8  00000000  00000000  0000e5a4  2**0
                  CONTENTS, READONLY, DEBUGGING

Disassembly of section .text:

00000000 <__vectors>:
       0:	0c 94 37 00 	jmp	0x6e	; 0x6e <__ctors_end>
       4:	0c 94 5f 00 	jmp	0xbe	; 0xbe <__bad_interrupt>
       8:	0c 94 5f 00 	jmp	0xbe	; 0xbe <__bad_interrupt>
       c:	0c 94 5f 00 	jmp	0xbe	; 0xbe <__bad_interrupt>
      10:	0c 94 5f 00 	jmp	0xbe	; 0xbe <__bad_interrupt>
      14:	0c 94 5f 00 	jmp	0xbe	; 0xbe <__bad_interrupt>
      18:	0c 94 5f 00 	jmp	0xbe	; 0xbe <__bad_interrupt>
      1c:	0c 94 5f 00 	jmp	0xbe	; 0xbe <__bad_interrupt>
      20:	0c 94 5f 00 	jmp	0xbe	; 0xbe <__bad_interrupt>
      24:	0c 94 5f 00 	jmp	0xbe	; 0xbe <__bad_interrupt>
      28:	0c 94 5f 00 	jmp	0xbe	; 0xbe <__bad_interrupt>
      2c:	0c 94 19 08 	jmp	0x1032	; 0x1032 <__vector_11>
      30:	0c 94 5f 00 	jmp	0xbe	; 0xbe <__bad_interrupt>
      34:	0c 94 5f 00 	jmp	0xbe	; 0xbe <__bad_interrupt>
      38:	0c 94 e2 07 	jmp	0xfc4	; 0xfc4 <__vector_14>
      3c:	0c 94 5f 00 	jmp	0xbe	; 0xbe <__bad_interrupt>
      40:	0c 94 5f 00 	jmp	0xbe	; 0xbe <__bad_interrupt>
      44:	0c 94 5f 00 	jmp	0xbe	; 0xbe <__bad_interrupt>
      48:	0c 94 5f 00 	jmp	0xbe	; 0xbe <__bad_interrupt>
      4c:	0c 94 5f 00 	jmp	0xbe	; 0xbe <__bad_interrupt>
      50:	0c 94 5f 00 	jmp	0xbe	; 0xbe <__bad_interrupt>
      54:	0c 94 5f 00 	jmp	0xbe	; 0xbe <__bad_interrupt>
      58:	0c 94 5f 00 	jmp	0xbe	; 0xbe <__bad_interrupt>
      5c:	0c 94 5f 00 	jmp	0xbe	; 0xbe <__bad_interrupt>
      60:	0c 94 5f 00 	jmp	0xbe	; 0xbe <__bad_interrupt>
      64:	0c 94 5f 00 	jmp	0xbe	; 0xbe <__bad_interrupt>

00000068 <__ctors_start>:
      68:	25 07       	cpc	r18, r21
      6a:	83 07       	cpc	r24, r19
      6c:	d5 07       	cpc	r29, r21

0000006e <__ctors_end>:
      6e:	11 24       	eor	r1, r1
      70:	1f be       	out	0x3f, r1	; 63
      72:	cf ef       	ldi	r28, 0xFF	; 255
      74:	d8 e0       	ldi	r29, 0x08	; 8
      76:	de bf       	out	0x3e, r29	; 62
      78:	cd bf       	out	0x3d, r28	; 61

0000007a <__do_copy_data>:
      7a:	11 e0       	ldi	r17, 0x01	; 1
      7c:	a0 e0       	ldi	r26, 0x00	; 0
      7e:	b1 e0       	ldi	r27, 0x01	; 1
      80:	e6 ee       	ldi	r30, 0xE6	; 230
      82:	f0 e1       	ldi	r31, 0x10	; 16
      84:	02 c0       	rjmp	.+4      	; 0x8a <__do_copy_data+0x10>
      86:	05 90       	lpm	r0, Z+
      88:	0d 92       	st	X+, r0
      8a:	a2 33       	cpi	r26, 0x32	; 50
      8c:	b1 07       	cpc	r27, r17
      8e:	d9 f7       	brne	.-10     	; 0x86 <__do_copy_data+0xc>

00000090 <__do_clear_bss>:
      90:	21 e0       	ldi	r18, 0x01	; 1
      92:	a2 e3       	ldi	r26, 0x32	; 50
      94:	b1 e0       	ldi	r27, 0x01	; 1
      96:	01 c0       	rjmp	.+2      	; 0x9a <.do_clear_bss_start>

00000098 <.do_clear_bss_loop>:
      98:	1d 92       	st	X+, r1

0000009a <.do_clear_bss_start>:
      9a:	ac 3f       	cpi	r26, 0xFC	; 252
      9c:	b2 07       	cpc	r27, r18
      9e:	e1 f7       	brne	.-8      	; 0x98 <.do_clear_bss_loop>

000000a0 <__do_global_ctors>:
      a0:	10 e0       	ldi	r17, 0x00	; 0
      a2:	c7 e3       	ldi	r28, 0x37	; 55
      a4:	d0 e0       	ldi	r29, 0x00	; 0
      a6:	04 c0       	rjmp	.+8      	; 0xb0 <__do_global_ctors+0x10>
      a8:	21 97       	sbiw	r28, 0x01	; 1
      aa:	fe 01       	movw	r30, r28
      ac:	0e 94 6b 08 	call	0x10d6	; 0x10d6 <__tablejump2__>
      b0:	c4 33       	cpi	r28, 0x34	; 52
      b2:	d1 07       	cpc	r29, r17
      b4:	c9 f7       	brne	.-14     	; 0xa8 <__do_global_ctors+0x8>
      b6:	0e 94 3f 05 	call	0xa7e	; 0xa7e <main>
      ba:	0c 94 71 08 	jmp	0x10e2	; 0x10e2 <_exit>

000000be <__bad_interrupt>:
      be:	0c 94 00 00 	jmp	0	; 0x0 <__vectors>

000000c2 <_ZN11human_clock8instanceEv>:
	}
	
	static void inc_human_clock(){ return instance().inc(); }

	public:
	inline static human_clock& instance(){
      c2:	cf 93       	push	r28
      c4:	df 93       	push	r29
      c6:	cd b7       	in	r28, 0x3d	; 61
      c8:	de b7       	in	r29, 0x3e	; 62
		static human_clock the_clock;
		return the_clock;
      ca:	82 e3       	ldi	r24, 0x32	; 50
      cc:	91 e0       	ldi	r25, 0x01	; 1
	}
      ce:	df 91       	pop	r29
      d0:	cf 91       	pop	r28
      d2:	08 95       	ret

000000d4 <_Z13reset_timer_1v>:

constexpr time_type T_MAX{ br_table_max_index * DIVIDE - n_th_DIVIDE_TIME_LONGATION<4>() };

time_type func(const time_type& value){
	return value * value;
}
      d4:	cf 93       	push	r28
      d6:	df 93       	push	r29
      d8:	cd b7       	in	r28, 0x3d	; 61
      da:	de b7       	in	r29, 0x3e	; 62
      dc:	81 e8       	ldi	r24, 0x81	; 129
      de:	90 e0       	ldi	r25, 0x00	; 0
      e0:	21 e8       	ldi	r18, 0x81	; 129
      e2:	30 e0       	ldi	r19, 0x00	; 0
      e4:	f9 01       	movw	r30, r18
      e6:	20 81       	ld	r18, Z
      e8:	28 7f       	andi	r18, 0xF8	; 248
      ea:	fc 01       	movw	r30, r24
      ec:	20 83       	st	Z, r18
      ee:	84 e8       	ldi	r24, 0x84	; 132
      f0:	90 e0       	ldi	r25, 0x00	; 0
      f2:	fc 01       	movw	r30, r24
      f4:	11 82       	std	Z+1, r1	; 0x01
      f6:	10 82       	st	Z, r1
      f8:	00 00       	nop
      fa:	df 91       	pop	r29
      fc:	cf 91       	pop	r28
      fe:	08 95       	ret

00000100 <_Z24start_timer1_prescaler_1v>:
     100:	cf 93       	push	r28
     102:	df 93       	push	r29
     104:	cd b7       	in	r28, 0x3d	; 61
     106:	de b7       	in	r29, 0x3e	; 62
     108:	81 e8       	ldi	r24, 0x81	; 129
     10a:	90 e0       	ldi	r25, 0x00	; 0
     10c:	21 e8       	ldi	r18, 0x81	; 129
     10e:	30 e0       	ldi	r19, 0x00	; 0
     110:	f9 01       	movw	r30, r18
     112:	20 81       	ld	r18, Z
     114:	21 60       	ori	r18, 0x01	; 1
     116:	fc 01       	movw	r30, r24
     118:	20 83       	st	Z, r18
     11a:	00 00       	nop
     11c:	df 91       	pop	r29
     11e:	cf 91       	pop	r28
     120:	08 95       	ret

00000122 <_Z41activate_timer1_compare_match_interrupt_AjPFvvEb>:
     122:	cf 93       	push	r28
     124:	df 93       	push	r29
     126:	00 d0       	rcall	.+0      	; 0x128 <_Z41activate_timer1_compare_match_interrupt_AjPFvvEb+0x6>
     128:	00 d0       	rcall	.+0      	; 0x12a <_Z41activate_timer1_compare_match_interrupt_AjPFvvEb+0x8>
     12a:	1f 92       	push	r1
     12c:	cd b7       	in	r28, 0x3d	; 61
     12e:	de b7       	in	r29, 0x3e	; 62
     130:	9a 83       	std	Y+2, r25	; 0x02
     132:	89 83       	std	Y+1, r24	; 0x01
     134:	7c 83       	std	Y+4, r23	; 0x04
     136:	6b 83       	std	Y+3, r22	; 0x03
     138:	4d 83       	std	Y+5, r20	; 0x05
     13a:	88 e8       	ldi	r24, 0x88	; 136
     13c:	90 e0       	ldi	r25, 0x00	; 0
     13e:	29 81       	ldd	r18, Y+1	; 0x01
     140:	3a 81       	ldd	r19, Y+2	; 0x02
     142:	fc 01       	movw	r30, r24
     144:	31 83       	std	Z+1, r19	; 0x01
     146:	20 83       	st	Z, r18
     148:	8b 81       	ldd	r24, Y+3	; 0x03
     14a:	9c 81       	ldd	r25, Y+4	; 0x04
     14c:	90 93 fb 01 	sts	0x01FB, r25	; 0x8001fb <TCNT1_COMPARE_A+0x1>
     150:	80 93 fa 01 	sts	0x01FA, r24	; 0x8001fa <TCNT1_COMPARE_A>
     154:	8f e6       	ldi	r24, 0x6F	; 111
     156:	90 e0       	ldi	r25, 0x00	; 0
     158:	2f e6       	ldi	r18, 0x6F	; 111
     15a:	30 e0       	ldi	r19, 0x00	; 0
     15c:	f9 01       	movw	r30, r18
     15e:	20 81       	ld	r18, Z
     160:	22 60       	ori	r18, 0x02	; 2
     162:	fc 01       	movw	r30, r24
     164:	20 83       	st	Z, r18
     166:	78 94       	sei
     168:	8d 81       	ldd	r24, Y+5	; 0x05
     16a:	88 23       	and	r24, r24
     16c:	49 f0       	breq	.+18     	; 0x180 <_Z41activate_timer1_compare_match_interrupt_AjPFvvEb+0x5e>
     16e:	80 e8       	ldi	r24, 0x80	; 128
     170:	90 e0       	ldi	r25, 0x00	; 0
     172:	20 e8       	ldi	r18, 0x80	; 128
     174:	30 e0       	ldi	r19, 0x00	; 0
     176:	f9 01       	movw	r30, r18
     178:	20 81       	ld	r18, Z
     17a:	22 60       	ori	r18, 0x02	; 2
     17c:	fc 01       	movw	r30, r24
     17e:	20 83       	st	Z, r18
     180:	00 00       	nop
     182:	0f 90       	pop	r0
     184:	0f 90       	pop	r0
     186:	0f 90       	pop	r0
     188:	0f 90       	pop	r0
     18a:	0f 90       	pop	r0
     18c:	df 91       	pop	r29
     18e:	cf 91       	pop	r28
     190:	08 95       	ret

00000192 <_ZN3fsl2hw13simple_atomicC1Ev>:
     192:	cf 93       	push	r28
     194:	df 93       	push	r29
     196:	00 d0       	rcall	.+0      	; 0x198 <_ZN3fsl2hw13simple_atomicC1Ev+0x6>
     198:	cd b7       	in	r28, 0x3d	; 61
     19a:	de b7       	in	r29, 0x3e	; 62
     19c:	9a 83       	std	Y+2, r25	; 0x02
     19e:	89 83       	std	Y+1, r24	; 0x01
     1a0:	8f e5       	ldi	r24, 0x5F	; 95
     1a2:	90 e0       	ldi	r25, 0x00	; 0
     1a4:	fc 01       	movw	r30, r24
     1a6:	20 81       	ld	r18, Z
     1a8:	89 81       	ldd	r24, Y+1	; 0x01
     1aa:	9a 81       	ldd	r25, Y+2	; 0x02
     1ac:	fc 01       	movw	r30, r24
     1ae:	20 83       	st	Z, r18
     1b0:	f8 94       	cli
     1b2:	00 00       	nop
     1b4:	0f 90       	pop	r0
     1b6:	0f 90       	pop	r0
     1b8:	df 91       	pop	r29
     1ba:	cf 91       	pop	r28
     1bc:	08 95       	ret

000001be <_ZN3fsl2hw13simple_atomicD1Ev>:
     1be:	cf 93       	push	r28
     1c0:	df 93       	push	r29
     1c2:	00 d0       	rcall	.+0      	; 0x1c4 <_ZN3fsl2hw13simple_atomicD1Ev+0x6>
     1c4:	cd b7       	in	r28, 0x3d	; 61
     1c6:	de b7       	in	r29, 0x3e	; 62
     1c8:	9a 83       	std	Y+2, r25	; 0x02
     1ca:	89 83       	std	Y+1, r24	; 0x01
     1cc:	8f e5       	ldi	r24, 0x5F	; 95
     1ce:	90 e0       	ldi	r25, 0x00	; 0
     1d0:	29 81       	ldd	r18, Y+1	; 0x01
     1d2:	3a 81       	ldd	r19, Y+2	; 0x02
     1d4:	f9 01       	movw	r30, r18
     1d6:	20 81       	ld	r18, Z
     1d8:	fc 01       	movw	r30, r24
     1da:	20 83       	st	Z, r18
     1dc:	00 00       	nop
     1de:	0f 90       	pop	r0
     1e0:	0f 90       	pop	r0
     1e2:	df 91       	pop	r29
     1e4:	cf 91       	pop	r28
     1e6:	08 95       	ret

000001e8 <_Z8pin_initv>:
     1e8:	cf 93       	push	r28
     1ea:	df 93       	push	r29
     1ec:	cd b7       	in	r28, 0x3d	; 61
     1ee:	de b7       	in	r29, 0x3e	; 62
     1f0:	87 e2       	ldi	r24, 0x27	; 39
     1f2:	90 e0       	ldi	r25, 0x00	; 0
     1f4:	27 e2       	ldi	r18, 0x27	; 39
     1f6:	30 e0       	ldi	r19, 0x00	; 0
     1f8:	f9 01       	movw	r30, r18
     1fa:	20 81       	ld	r18, Z
     1fc:	27 7c       	andi	r18, 0xC7	; 199
     1fe:	fc 01       	movw	r30, r24
     200:	20 83       	st	Z, r18
     202:	88 e2       	ldi	r24, 0x28	; 40
     204:	90 e0       	ldi	r25, 0x00	; 0
     206:	28 e2       	ldi	r18, 0x28	; 40
     208:	30 e0       	ldi	r19, 0x00	; 0
     20a:	f9 01       	movw	r30, r18
     20c:	20 81       	ld	r18, Z
     20e:	28 63       	ori	r18, 0x38	; 56
     210:	fc 01       	movw	r30, r24
     212:	20 83       	st	Z, r18
     214:	8b e2       	ldi	r24, 0x2B	; 43
     216:	90 e0       	ldi	r25, 0x00	; 0
     218:	fc 01       	movw	r30, r24
     21a:	10 82       	st	Z, r1
     21c:	85 e2       	ldi	r24, 0x25	; 37
     21e:	90 e0       	ldi	r25, 0x00	; 0
     220:	25 e2       	ldi	r18, 0x25	; 37
     222:	30 e0       	ldi	r19, 0x00	; 0
     224:	f9 01       	movw	r30, r18
     226:	20 81       	ld	r18, Z
     228:	2e 7f       	andi	r18, 0xFE	; 254
     22a:	fc 01       	movw	r30, r24
     22c:	20 83       	st	Z, r18
     22e:	8a e2       	ldi	r24, 0x2A	; 42
     230:	90 e0       	ldi	r25, 0x00	; 0
     232:	2f ef       	ldi	r18, 0xFF	; 255
     234:	fc 01       	movw	r30, r24
     236:	20 83       	st	Z, r18
     238:	84 e2       	ldi	r24, 0x24	; 36
     23a:	90 e0       	ldi	r25, 0x00	; 0
     23c:	24 e2       	ldi	r18, 0x24	; 36
     23e:	30 e0       	ldi	r19, 0x00	; 0
     240:	f9 01       	movw	r30, r18
     242:	20 81       	ld	r18, Z
     244:	21 60       	ori	r18, 0x01	; 1
     246:	fc 01       	movw	r30, r24
     248:	20 83       	st	Z, r18
     24a:	00 00       	nop
     24c:	df 91       	pop	r29
     24e:	cf 91       	pop	r28
     250:	08 95       	ret

00000252 <_ZN10brightnessC1Ev>:
     252:	cf 93       	push	r28
     254:	df 93       	push	r29
     256:	00 d0       	rcall	.+0      	; 0x258 <_ZN10brightnessC1Ev+0x6>
     258:	cd b7       	in	r28, 0x3d	; 61
     25a:	de b7       	in	r29, 0x3e	; 62
     25c:	9a 83       	std	Y+2, r25	; 0x02
     25e:	89 83       	std	Y+1, r24	; 0x01
     260:	89 81       	ldd	r24, Y+1	; 0x01
     262:	9a 81       	ldd	r25, Y+2	; 0x02
     264:	2a e0       	ldi	r18, 0x0A	; 10
     266:	fc 01       	movw	r30, r24
     268:	32 2f       	mov	r19, r18
     26a:	11 92       	st	Z+, r1
     26c:	3a 95       	dec	r19
     26e:	e9 f7       	brne	.-6      	; 0x26a <_ZN10brightnessC1Ev+0x18>
     270:	89 81       	ldd	r24, Y+1	; 0x01
     272:	9a 81       	ldd	r25, Y+2	; 0x02
     274:	fc 01       	movw	r30, r24
     276:	12 86       	std	Z+10, r1	; 0x0a
     278:	13 86       	std	Z+11, r1	; 0x0b
     27a:	14 86       	std	Z+12, r1	; 0x0c
     27c:	15 86       	std	Z+13, r1	; 0x0d
     27e:	00 00       	nop
     280:	0f 90       	pop	r0
     282:	0f 90       	pop	r0
     284:	df 91       	pop	r29
     286:	cf 91       	pop	r28
     288:	08 95       	ret

0000028a <_ZN10brightnessaSERKS_>:
     28a:	cf 93       	push	r28
     28c:	df 93       	push	r29
     28e:	00 d0       	rcall	.+0      	; 0x290 <_ZN10brightnessaSERKS_+0x6>
     290:	00 d0       	rcall	.+0      	; 0x292 <_ZN10brightnessaSERKS_+0x8>
     292:	1f 92       	push	r1
     294:	cd b7       	in	r28, 0x3d	; 61
     296:	de b7       	in	r29, 0x3e	; 62
     298:	9b 83       	std	Y+3, r25	; 0x03
     29a:	8a 83       	std	Y+2, r24	; 0x02
     29c:	7d 83       	std	Y+5, r23	; 0x05
     29e:	6c 83       	std	Y+4, r22	; 0x04
     2a0:	19 82       	std	Y+1, r1	; 0x01
     2a2:	89 81       	ldd	r24, Y+1	; 0x01
     2a4:	85 30       	cpi	r24, 0x05	; 5
     2a6:	e0 f4       	brcc	.+56     	; 0x2e0 <_ZN10brightnessaSERKS_+0x56>
     2a8:	89 81       	ldd	r24, Y+1	; 0x01
     2aa:	88 2f       	mov	r24, r24
     2ac:	90 e0       	ldi	r25, 0x00	; 0
     2ae:	29 81       	ldd	r18, Y+1	; 0x01
     2b0:	22 2f       	mov	r18, r18
     2b2:	30 e0       	ldi	r19, 0x00	; 0
     2b4:	4c 81       	ldd	r20, Y+4	; 0x04
     2b6:	5d 81       	ldd	r21, Y+5	; 0x05
     2b8:	22 0f       	add	r18, r18
     2ba:	33 1f       	adc	r19, r19
     2bc:	24 0f       	add	r18, r20
     2be:	35 1f       	adc	r19, r21
     2c0:	f9 01       	movw	r30, r18
     2c2:	20 81       	ld	r18, Z
     2c4:	31 81       	ldd	r19, Z+1	; 0x01
     2c6:	4a 81       	ldd	r20, Y+2	; 0x02
     2c8:	5b 81       	ldd	r21, Y+3	; 0x03
     2ca:	88 0f       	add	r24, r24
     2cc:	99 1f       	adc	r25, r25
     2ce:	84 0f       	add	r24, r20
     2d0:	95 1f       	adc	r25, r21
     2d2:	fc 01       	movw	r30, r24
     2d4:	31 83       	std	Z+1, r19	; 0x01
     2d6:	20 83       	st	Z, r18
     2d8:	89 81       	ldd	r24, Y+1	; 0x01
     2da:	8f 5f       	subi	r24, 0xFF	; 255
     2dc:	89 83       	std	Y+1, r24	; 0x01
     2de:	e1 cf       	rjmp	.-62     	; 0x2a2 <_ZN10brightnessaSERKS_+0x18>
     2e0:	8c 81       	ldd	r24, Y+4	; 0x04
     2e2:	9d 81       	ldd	r25, Y+5	; 0x05
     2e4:	fc 01       	movw	r30, r24
     2e6:	82 85       	ldd	r24, Z+10	; 0x0a
     2e8:	93 85       	ldd	r25, Z+11	; 0x0b
     2ea:	a4 85       	ldd	r26, Z+12	; 0x0c
     2ec:	b5 85       	ldd	r27, Z+13	; 0x0d
     2ee:	2a 81       	ldd	r18, Y+2	; 0x02
     2f0:	3b 81       	ldd	r19, Y+3	; 0x03
     2f2:	f9 01       	movw	r30, r18
     2f4:	82 87       	std	Z+10, r24	; 0x0a
     2f6:	93 87       	std	Z+11, r25	; 0x0b
     2f8:	a4 87       	std	Z+12, r26	; 0x0c
     2fa:	b5 87       	std	Z+13, r27	; 0x0d
     2fc:	8a 81       	ldd	r24, Y+2	; 0x02
     2fe:	9b 81       	ldd	r25, Y+3	; 0x03
     300:	0f 90       	pop	r0
     302:	0f 90       	pop	r0
     304:	0f 90       	pop	r0
     306:	0f 90       	pop	r0
     308:	0f 90       	pop	r0
     30a:	df 91       	pop	r29
     30c:	cf 91       	pop	r28
     30e:	08 95       	ret

00000310 <_ZN17brightness_bufferILh10EEC1Ev>:
     310:	cf 93       	push	r28
     312:	df 93       	push	r29
     314:	00 d0       	rcall	.+0      	; 0x316 <_ZN17brightness_bufferILh10EEC1Ev+0x6>
     316:	cd b7       	in	r28, 0x3d	; 61
     318:	de b7       	in	r29, 0x3e	; 62
     31a:	9a 83       	std	Y+2, r25	; 0x02
     31c:	89 83       	std	Y+1, r24	; 0x01
     31e:	89 81       	ldd	r24, Y+1	; 0x01
     320:	9a 81       	ldd	r25, Y+2	; 0x02
     322:	0e 94 29 01 	call	0x252	; 0x252 <_ZN10brightnessC1Ev>
     326:	89 81       	ldd	r24, Y+1	; 0x01
     328:	9a 81       	ldd	r25, Y+2	; 0x02
     32a:	0e 96       	adiw	r24, 0x0e	; 14
     32c:	0e 94 29 01 	call	0x252	; 0x252 <_ZN10brightnessC1Ev>
     330:	89 81       	ldd	r24, Y+1	; 0x01
     332:	9a 81       	ldd	r25, Y+2	; 0x02
     334:	4c 96       	adiw	r24, 0x1c	; 28
     336:	0e 94 29 01 	call	0x252	; 0x252 <_ZN10brightnessC1Ev>
     33a:	89 81       	ldd	r24, Y+1	; 0x01
     33c:	9a 81       	ldd	r25, Y+2	; 0x02
     33e:	8a 96       	adiw	r24, 0x2a	; 42
     340:	0e 94 29 01 	call	0x252	; 0x252 <_ZN10brightnessC1Ev>
     344:	89 81       	ldd	r24, Y+1	; 0x01
     346:	9a 81       	ldd	r25, Y+2	; 0x02
     348:	c8 96       	adiw	r24, 0x38	; 56
     34a:	0e 94 29 01 	call	0x252	; 0x252 <_ZN10brightnessC1Ev>
     34e:	89 81       	ldd	r24, Y+1	; 0x01
     350:	9a 81       	ldd	r25, Y+2	; 0x02
     352:	8a 5b       	subi	r24, 0xBA	; 186
     354:	9f 4f       	sbci	r25, 0xFF	; 255
     356:	0e 94 29 01 	call	0x252	; 0x252 <_ZN10brightnessC1Ev>
     35a:	89 81       	ldd	r24, Y+1	; 0x01
     35c:	9a 81       	ldd	r25, Y+2	; 0x02
     35e:	8c 5a       	subi	r24, 0xAC	; 172
     360:	9f 4f       	sbci	r25, 0xFF	; 255
     362:	0e 94 29 01 	call	0x252	; 0x252 <_ZN10brightnessC1Ev>
     366:	89 81       	ldd	r24, Y+1	; 0x01
     368:	9a 81       	ldd	r25, Y+2	; 0x02
     36a:	8e 59       	subi	r24, 0x9E	; 158
     36c:	9f 4f       	sbci	r25, 0xFF	; 255
     36e:	0e 94 29 01 	call	0x252	; 0x252 <_ZN10brightnessC1Ev>
     372:	89 81       	ldd	r24, Y+1	; 0x01
     374:	9a 81       	ldd	r25, Y+2	; 0x02
     376:	80 59       	subi	r24, 0x90	; 144
     378:	9f 4f       	sbci	r25, 0xFF	; 255
     37a:	0e 94 29 01 	call	0x252	; 0x252 <_ZN10brightnessC1Ev>
     37e:	89 81       	ldd	r24, Y+1	; 0x01
     380:	9a 81       	ldd	r25, Y+2	; 0x02
     382:	82 58       	subi	r24, 0x82	; 130
     384:	9f 4f       	sbci	r25, 0xFF	; 255
     386:	0e 94 29 01 	call	0x252	; 0x252 <_ZN10brightnessC1Ev>
     38a:	89 81       	ldd	r24, Y+1	; 0x01
     38c:	9a 81       	ldd	r25, Y+2	; 0x02
     38e:	84 57       	subi	r24, 0x74	; 116
     390:	9f 4f       	sbci	r25, 0xFF	; 255
     392:	fc 01       	movw	r30, r24
     394:	10 82       	st	Z, r1
     396:	89 81       	ldd	r24, Y+1	; 0x01
     398:	9a 81       	ldd	r25, Y+2	; 0x02
     39a:	83 57       	subi	r24, 0x73	; 115
     39c:	9f 4f       	sbci	r25, 0xFF	; 255
     39e:	fc 01       	movw	r30, r24
     3a0:	10 82       	st	Z, r1
     3a2:	89 81       	ldd	r24, Y+1	; 0x01
     3a4:	9a 81       	ldd	r25, Y+2	; 0x02
     3a6:	82 57       	subi	r24, 0x72	; 114
     3a8:	9f 4f       	sbci	r25, 0xFF	; 255
     3aa:	fc 01       	movw	r30, r24
     3ac:	10 82       	st	Z, r1
     3ae:	00 00       	nop
     3b0:	0f 90       	pop	r0
     3b2:	0f 90       	pop	r0
     3b4:	df 91       	pop	r29
     3b6:	cf 91       	pop	r28
     3b8:	08 95       	ret

000003ba <_Z10update_arcv>:
     3ba:	cf 93       	push	r28
     3bc:	df 93       	push	r29
     3be:	cd b7       	in	r28, 0x3d	; 61
     3c0:	de b7       	in	r29, 0x3e	; 62
     3c2:	27 97       	sbiw	r28, 0x07	; 7
     3c4:	0f b6       	in	r0, 0x3f	; 63
     3c6:	f8 94       	cli
     3c8:	de bf       	out	0x3e, r29	; 62
     3ca:	0f be       	out	0x3f, r0	; 63
     3cc:	cd bf       	out	0x3d, r28	; 61
     3ce:	80 91 d3 01 	lds	r24, 0x01D3	; 0x8001d3 <_ZZ10update_arcvE15circle_position>
     3d2:	8f 5f       	subi	r24, 0xFF	; 255
     3d4:	80 93 d3 01 	sts	0x01D3, r24	; 0x8001d3 <_ZZ10update_arcvE15circle_position>
     3d8:	80 91 d3 01 	lds	r24, 0x01D3	; 0x8001d3 <_ZZ10update_arcvE15circle_position>
     3dc:	8f 71       	andi	r24, 0x1F	; 31
     3de:	80 93 d3 01 	sts	0x01D3, r24	; 0x8001d3 <_ZZ10update_arcvE15circle_position>
     3e2:	ce 01       	movw	r24, r28
     3e4:	06 96       	adiw	r24, 0x06	; 6
     3e6:	bc 01       	movw	r22, r24
     3e8:	84 e4       	ldi	r24, 0x44	; 68
     3ea:	91 e0       	ldi	r25, 0x01	; 1
     3ec:	0e 94 5f 05 	call	0xabe	; 0xabe <_ZN17brightness_bufferILh10EE29unsafe_uninterrupted_read_ptrERPK10brightness>
     3f0:	89 83       	std	Y+1, r24	; 0x01
     3f2:	99 81       	ldd	r25, Y+1	; 0x01
     3f4:	81 e0       	ldi	r24, 0x01	; 1
     3f6:	89 27       	eor	r24, r25
     3f8:	88 23       	and	r24, r24
     3fa:	79 f5       	brne	.+94     	; 0x45a <__LOCK_REGION_LENGTH__+0x5a>
     3fc:	2e 81       	ldd	r18, Y+6	; 0x06
     3fe:	3f 81       	ldd	r19, Y+7	; 0x07
     400:	80 91 d3 01 	lds	r24, 0x01D3	; 0x8001d3 <_ZZ10update_arcvE15circle_position>
     404:	88 2f       	mov	r24, r24
     406:	90 e0       	ldi	r25, 0x00	; 0
     408:	86 5f       	subi	r24, 0xF6	; 246
     40a:	9e 4f       	sbci	r25, 0xFE	; 254
     40c:	fc 01       	movw	r30, r24
     40e:	80 81       	ld	r24, Z
     410:	88 2f       	mov	r24, r24
     412:	90 e0       	ldi	r25, 0x00	; 0
     414:	88 0f       	add	r24, r24
     416:	99 1f       	adc	r25, r25
     418:	82 0f       	add	r24, r18
     41a:	93 1f       	adc	r25, r19
     41c:	fc 01       	movw	r30, r24
     41e:	80 81       	ld	r24, Z
     420:	91 81       	ldd	r25, Z+1	; 0x01
     422:	9b 83       	std	Y+3, r25	; 0x03
     424:	8a 83       	std	Y+2, r24	; 0x02
     426:	8a 81       	ldd	r24, Y+2	; 0x02
     428:	8c 83       	std	Y+4, r24	; 0x04
     42a:	8a 81       	ldd	r24, Y+2	; 0x02
     42c:	9b 81       	ldd	r25, Y+3	; 0x03
     42e:	89 2f       	mov	r24, r25
     430:	99 27       	eor	r25, r25
     432:	81 70       	andi	r24, 0x01	; 1
     434:	8d 83       	std	Y+5, r24	; 0x05
     436:	8b e2       	ldi	r24, 0x2B	; 43
     438:	90 e0       	ldi	r25, 0x00	; 0
     43a:	2c 81       	ldd	r18, Y+4	; 0x04
     43c:	fc 01       	movw	r30, r24
     43e:	20 83       	st	Z, r18
     440:	85 e2       	ldi	r24, 0x25	; 37
     442:	90 e0       	ldi	r25, 0x00	; 0
     444:	25 e2       	ldi	r18, 0x25	; 37
     446:	30 e0       	ldi	r19, 0x00	; 0
     448:	f9 01       	movw	r30, r18
     44a:	20 81       	ld	r18, Z
     44c:	32 2f       	mov	r19, r18
     44e:	3e 7f       	andi	r19, 0xFE	; 254
     450:	2d 81       	ldd	r18, Y+5	; 0x05
     452:	23 2b       	or	r18, r19
     454:	fc 01       	movw	r30, r24
     456:	20 83       	st	Z, r18
     458:	01 c0       	rjmp	.+2      	; 0x45c <__LOCK_REGION_LENGTH__+0x5c>
     45a:	00 00       	nop
     45c:	27 96       	adiw	r28, 0x07	; 7
     45e:	0f b6       	in	r0, 0x3f	; 63
     460:	f8 94       	cli
     462:	de bf       	out	0x3e, r29	; 62
     464:	0f be       	out	0x3f, r0	; 63
     466:	cd bf       	out	0x3d, r28	; 61
     468:	df 91       	pop	r29
     46a:	cf 91       	pop	r28
     46c:	08 95       	ret

0000046e <_Z6set_brR10brightnessjh>:
     46e:	cf 93       	push	r28
     470:	df 93       	push	r29
     472:	00 d0       	rcall	.+0      	; 0x474 <_Z6set_brR10brightnessjh+0x6>
     474:	00 d0       	rcall	.+0      	; 0x476 <_Z6set_brR10brightnessjh+0x8>
     476:	00 d0       	rcall	.+0      	; 0x478 <_Z6set_brR10brightnessjh+0xa>
     478:	cd b7       	in	r28, 0x3d	; 61
     47a:	de b7       	in	r29, 0x3e	; 62
     47c:	9b 83       	std	Y+3, r25	; 0x03
     47e:	8a 83       	std	Y+2, r24	; 0x02
     480:	7d 83       	std	Y+5, r23	; 0x05
     482:	6c 83       	std	Y+4, r22	; 0x04
     484:	4e 83       	std	Y+6, r20	; 0x06
     486:	19 82       	std	Y+1, r1	; 0x01
     488:	89 81       	ldd	r24, Y+1	; 0x01
     48a:	85 30       	cpi	r24, 0x05	; 5
     48c:	c8 f5       	brcc	.+114    	; 0x500 <_Z6set_brR10brightnessjh+0x92>
     48e:	89 81       	ldd	r24, Y+1	; 0x01
     490:	68 2f       	mov	r22, r24
     492:	70 e0       	ldi	r23, 0x00	; 0
     494:	89 81       	ldd	r24, Y+1	; 0x01
     496:	88 2f       	mov	r24, r24
     498:	90 e0       	ldi	r25, 0x00	; 0
     49a:	2a 81       	ldd	r18, Y+2	; 0x02
     49c:	3b 81       	ldd	r19, Y+3	; 0x03
     49e:	88 0f       	add	r24, r24
     4a0:	99 1f       	adc	r25, r25
     4a2:	82 0f       	add	r24, r18
     4a4:	93 1f       	adc	r25, r19
     4a6:	dc 01       	movw	r26, r24
     4a8:	2d 91       	ld	r18, X+
     4aa:	3c 91       	ld	r19, X
     4ac:	8e 81       	ldd	r24, Y+6	; 0x06
     4ae:	88 2f       	mov	r24, r24
     4b0:	90 e0       	ldi	r25, 0x00	; 0
     4b2:	49 81       	ldd	r20, Y+1	; 0x01
     4b4:	44 2f       	mov	r20, r20
     4b6:	50 e0       	ldi	r21, 0x00	; 0
     4b8:	e4 e0       	ldi	r30, 0x04	; 4
     4ba:	f0 e0       	ldi	r31, 0x00	; 0
     4bc:	df 01       	movw	r26, r30
     4be:	a4 1b       	sub	r26, r20
     4c0:	b5 0b       	sbc	r27, r21
     4c2:	ad 01       	movw	r20, r26
     4c4:	02 c0       	rjmp	.+4      	; 0x4ca <_Z6set_brR10brightnessjh+0x5c>
     4c6:	95 95       	asr	r25
     4c8:	87 95       	ror	r24
     4ca:	4a 95       	dec	r20
     4cc:	e2 f7       	brpl	.-8      	; 0x4c6 <_Z6set_brR10brightnessjh+0x58>
     4ce:	81 70       	andi	r24, 0x01	; 1
     4d0:	99 27       	eor	r25, r25
     4d2:	89 2b       	or	r24, r25
     4d4:	19 f0       	breq	.+6      	; 0x4dc <_Z6set_brR10brightnessjh+0x6e>
     4d6:	8c 81       	ldd	r24, Y+4	; 0x04
     4d8:	9d 81       	ldd	r25, Y+5	; 0x05
     4da:	02 c0       	rjmp	.+4      	; 0x4e0 <_Z6set_brR10brightnessjh+0x72>
     4dc:	80 e0       	ldi	r24, 0x00	; 0
     4de:	90 e0       	ldi	r25, 0x00	; 0
     4e0:	28 2b       	or	r18, r24
     4e2:	39 2b       	or	r19, r25
     4e4:	4a 81       	ldd	r20, Y+2	; 0x02
     4e6:	5b 81       	ldd	r21, Y+3	; 0x03
     4e8:	cb 01       	movw	r24, r22
     4ea:	88 0f       	add	r24, r24
     4ec:	99 1f       	adc	r25, r25
     4ee:	84 0f       	add	r24, r20
     4f0:	95 1f       	adc	r25, r21
     4f2:	fc 01       	movw	r30, r24
     4f4:	31 83       	std	Z+1, r19	; 0x01
     4f6:	20 83       	st	Z, r18
     4f8:	89 81       	ldd	r24, Y+1	; 0x01
     4fa:	8f 5f       	subi	r24, 0xFF	; 255
     4fc:	89 83       	std	Y+1, r24	; 0x01
     4fe:	c4 cf       	rjmp	.-120    	; 0x488 <_Z6set_brR10brightnessjh+0x1a>
     500:	00 00       	nop
     502:	26 96       	adiw	r28, 0x06	; 6
     504:	0f b6       	in	r0, 0x3f	; 63
     506:	f8 94       	cli
     508:	de bf       	out	0x3e, r29	; 62
     50a:	0f be       	out	0x3f, r0	; 63
     50c:	cd bf       	out	0x3d, r28	; 61
     50e:	df 91       	pop	r29
     510:	cf 91       	pop	r28
     512:	08 95       	ret

00000514 <_Z10enlight_upv>:
     514:	cf 93       	push	r28
     516:	df 93       	push	r29
     518:	cd b7       	in	r28, 0x3d	; 61
     51a:	de b7       	in	r29, 0x3e	; 62
     51c:	eb 97       	sbiw	r28, 0x3b	; 59
     51e:	0f b6       	in	r0, 0x3f	; 63
     520:	f8 94       	cli
     522:	de bf       	out	0x3e, r29	; 62
     524:	0f be       	out	0x3f, r0	; 63
     526:	cd bf       	out	0x3d, r28	; 61
     528:	84 e4       	ldi	r24, 0x44	; 68
     52a:	91 e0       	ldi	r25, 0x01	; 1
     52c:	0e 94 3f 06 	call	0xc7e	; 0xc7e <_ZNK17brightness_bufferILh10EE4fullEv>
     530:	88 23       	and	r24, r24
     532:	09 f0       	breq	.+2      	; 0x536 <_Z10enlight_upv+0x22>
     534:	f9 cf       	rjmp	.-14     	; 0x528 <_Z10enlight_upv+0x14>
     536:	ce 01       	movw	r24, r28
     538:	08 96       	adiw	r24, 0x08	; 8
     53a:	0e 94 29 01 	call	0x252	; 0x252 <_ZN10brightnessC1Ev>
     53e:	80 e8       	ldi	r24, 0x80	; 128
     540:	9e e3       	ldi	r25, 0x3E	; 62
     542:	a0 e0       	ldi	r26, 0x00	; 0
     544:	b0 e0       	ldi	r27, 0x00	; 0
     546:	8a 8b       	std	Y+18, r24	; 0x12
     548:	9b 8b       	std	Y+19, r25	; 0x13
     54a:	ac 8b       	std	Y+20, r26	; 0x14
     54c:	bd 8b       	std	Y+21, r27	; 0x15
     54e:	ce 01       	movw	r24, r28
     550:	08 96       	adiw	r24, 0x08	; 8
     552:	bc 01       	movw	r22, r24
     554:	84 e4       	ldi	r24, 0x44	; 68
     556:	91 e0       	ldi	r25, 0x01	; 1
     558:	0e 94 5d 06 	call	0xcba	; 0xcba <_ZN17brightness_bufferILh10EE5writeERK10brightness>
     55c:	8a e0       	ldi	r24, 0x0A	; 10
     55e:	e0 e0       	ldi	r30, 0x00	; 0
     560:	f1 e0       	ldi	r31, 0x01	; 1
     562:	de 01       	movw	r26, r28
     564:	56 96       	adiw	r26, 0x16	; 22
     566:	01 90       	ld	r0, Z+
     568:	0d 92       	st	X+, r0
     56a:	8a 95       	dec	r24
     56c:	e1 f7       	brne	.-8      	; 0x566 <_Z10enlight_upv+0x52>
     56e:	1f 82       	std	Y+7, r1	; 0x07
     570:	19 82       	std	Y+1, r1	; 0x01
     572:	81 e0       	ldi	r24, 0x01	; 1
     574:	8a 83       	std	Y+2, r24	; 0x02
     576:	84 e0       	ldi	r24, 0x04	; 4
     578:	8b 83       	std	Y+3, r24	; 0x03
     57a:	89 81       	ldd	r24, Y+1	; 0x01
     57c:	8f 83       	std	Y+7, r24	; 0x07
     57e:	89 81       	ldd	r24, Y+1	; 0x01
     580:	8c 31       	cpi	r24, 0x1C	; 28
     582:	19 f4       	brne	.+6      	; 0x58a <_Z10enlight_upv+0x76>
     584:	8f e1       	ldi	r24, 0x1F	; 31
     586:	89 83       	std	Y+1, r24	; 0x01
     588:	0f c0       	rjmp	.+30     	; 0x5a8 <_Z10enlight_upv+0x94>
     58a:	99 81       	ldd	r25, Y+1	; 0x01
     58c:	8a 81       	ldd	r24, Y+2	; 0x02
     58e:	89 0f       	add	r24, r25
     590:	89 83       	std	Y+1, r24	; 0x01
     592:	8b 81       	ldd	r24, Y+3	; 0x03
     594:	81 50       	subi	r24, 0x01	; 1
     596:	8b 83       	std	Y+3, r24	; 0x03
     598:	8b 81       	ldd	r24, Y+3	; 0x03
     59a:	88 23       	and	r24, r24
     59c:	29 f4       	brne	.+10     	; 0x5a8 <_Z10enlight_upv+0x94>
     59e:	84 e0       	ldi	r24, 0x04	; 4
     5a0:	8b 83       	std	Y+3, r24	; 0x03
     5a2:	8a 81       	ldd	r24, Y+2	; 0x02
     5a4:	88 0f       	add	r24, r24
     5a6:	8a 83       	std	Y+2, r24	; 0x02
     5a8:	1c 82       	std	Y+4, r1	; 0x04
     5aa:	8c 81       	ldd	r24, Y+4	; 0x04
     5ac:	85 30       	cpi	r24, 0x05	; 5
     5ae:	08 f0       	brcs	.+2      	; 0x5b2 <_Z10enlight_upv+0x9e>
     5b0:	58 c0       	rjmp	.+176    	; 0x662 <_Z10enlight_upv+0x14e>
     5b2:	ce 01       	movw	r24, r28
     5b4:	80 96       	adiw	r24, 0x20	; 32
     5b6:	0e 94 29 01 	call	0x252	; 0x252 <_ZN10brightnessC1Ev>
     5ba:	88 ee       	ldi	r24, 0xE8	; 232
     5bc:	93 e0       	ldi	r25, 0x03	; 3
     5be:	a0 e0       	ldi	r26, 0x00	; 0
     5c0:	b0 e0       	ldi	r27, 0x00	; 0
     5c2:	8a a7       	std	Y+42, r24	; 0x2a
     5c4:	9b a7       	std	Y+43, r25	; 0x2b
     5c6:	ac a7       	std	Y+44, r26	; 0x2c
     5c8:	bd a7       	std	Y+45, r27	; 0x2d
     5ca:	1d 82       	std	Y+5, r1	; 0x05
     5cc:	9d 81       	ldd	r25, Y+5	; 0x05
     5ce:	8c 81       	ldd	r24, Y+4	; 0x04
     5d0:	98 17       	cp	r25, r24
     5d2:	c0 f4       	brcc	.+48     	; 0x604 <_Z10enlight_upv+0xf0>
     5d4:	8d 81       	ldd	r24, Y+5	; 0x05
     5d6:	88 2f       	mov	r24, r24
     5d8:	90 e0       	ldi	r25, 0x00	; 0
     5da:	88 0f       	add	r24, r24
     5dc:	99 1f       	adc	r25, r25
     5de:	9e 01       	movw	r18, r28
     5e0:	2f 5f       	subi	r18, 0xFF	; 255
     5e2:	3f 4f       	sbci	r19, 0xFF	; 255
     5e4:	82 0f       	add	r24, r18
     5e6:	93 1f       	adc	r25, r19
     5e8:	45 96       	adiw	r24, 0x15	; 21
     5ea:	fc 01       	movw	r30, r24
     5ec:	20 81       	ld	r18, Z
     5ee:	31 81       	ldd	r19, Z+1	; 0x01
     5f0:	ce 01       	movw	r24, r28
     5f2:	80 96       	adiw	r24, 0x20	; 32
     5f4:	49 81       	ldd	r20, Y+1	; 0x01
     5f6:	b9 01       	movw	r22, r18
     5f8:	0e 94 37 02 	call	0x46e	; 0x46e <_Z6set_brR10brightnessjh>
     5fc:	8d 81       	ldd	r24, Y+5	; 0x05
     5fe:	8f 5f       	subi	r24, 0xFF	; 255
     600:	8d 83       	std	Y+5, r24	; 0x05
     602:	e4 cf       	rjmp	.-56     	; 0x5cc <_Z10enlight_upv+0xb8>
     604:	8c 81       	ldd	r24, Y+4	; 0x04
     606:	8e 83       	std	Y+6, r24	; 0x06
     608:	8e 81       	ldd	r24, Y+6	; 0x06
     60a:	85 30       	cpi	r24, 0x05	; 5
     60c:	c0 f4       	brcc	.+48     	; 0x63e <_Z10enlight_upv+0x12a>
     60e:	8e 81       	ldd	r24, Y+6	; 0x06
     610:	88 2f       	mov	r24, r24
     612:	90 e0       	ldi	r25, 0x00	; 0
     614:	88 0f       	add	r24, r24
     616:	99 1f       	adc	r25, r25
     618:	9e 01       	movw	r18, r28
     61a:	2f 5f       	subi	r18, 0xFF	; 255
     61c:	3f 4f       	sbci	r19, 0xFF	; 255
     61e:	82 0f       	add	r24, r18
     620:	93 1f       	adc	r25, r19
     622:	45 96       	adiw	r24, 0x15	; 21
     624:	fc 01       	movw	r30, r24
     626:	20 81       	ld	r18, Z
     628:	31 81       	ldd	r19, Z+1	; 0x01
     62a:	ce 01       	movw	r24, r28
     62c:	80 96       	adiw	r24, 0x20	; 32
     62e:	4f 81       	ldd	r20, Y+7	; 0x07
     630:	b9 01       	movw	r22, r18
     632:	0e 94 37 02 	call	0x46e	; 0x46e <_Z6set_brR10brightnessjh>
     636:	8e 81       	ldd	r24, Y+6	; 0x06
     638:	8f 5f       	subi	r24, 0xFF	; 255
     63a:	8e 83       	std	Y+6, r24	; 0x06
     63c:	e5 cf       	rjmp	.-54     	; 0x608 <_Z10enlight_upv+0xf4>
     63e:	84 e4       	ldi	r24, 0x44	; 68
     640:	91 e0       	ldi	r25, 0x01	; 1
     642:	0e 94 3f 06 	call	0xc7e	; 0xc7e <_ZNK17brightness_bufferILh10EE4fullEv>
     646:	88 23       	and	r24, r24
     648:	09 f0       	breq	.+2      	; 0x64c <_Z10enlight_upv+0x138>
     64a:	f9 cf       	rjmp	.-14     	; 0x63e <_Z10enlight_upv+0x12a>
     64c:	ce 01       	movw	r24, r28
     64e:	80 96       	adiw	r24, 0x20	; 32
     650:	bc 01       	movw	r22, r24
     652:	84 e4       	ldi	r24, 0x44	; 68
     654:	91 e0       	ldi	r25, 0x01	; 1
     656:	0e 94 5d 06 	call	0xcba	; 0xcba <_ZN17brightness_bufferILh10EE5writeERK10brightness>
     65a:	8c 81       	ldd	r24, Y+4	; 0x04
     65c:	8f 5f       	subi	r24, 0xFF	; 255
     65e:	8c 83       	std	Y+4, r24	; 0x04
     660:	a4 cf       	rjmp	.-184    	; 0x5aa <_Z10enlight_upv+0x96>
     662:	89 81       	ldd	r24, Y+1	; 0x01
     664:	8f 31       	cpi	r24, 0x1F	; 31
     666:	09 f0       	breq	.+2      	; 0x66a <_Z10enlight_upv+0x156>
     668:	88 cf       	rjmp	.-240    	; 0x57a <_Z10enlight_upv+0x66>
     66a:	89 81       	ldd	r24, Y+1	; 0x01
     66c:	88 23       	and	r24, r24
     66e:	d9 f1       	breq	.+118    	; 0x6e6 <_Z10enlight_upv+0x1d2>
     670:	ce 01       	movw	r24, r28
     672:	8e 96       	adiw	r24, 0x2e	; 46
     674:	0e 94 29 01 	call	0x252	; 0x252 <_ZN10brightnessC1Ev>
     678:	ce 01       	movw	r24, r28
     67a:	8e 96       	adiw	r24, 0x2e	; 46
     67c:	49 81       	ldd	r20, Y+1	; 0x01
     67e:	6f ef       	ldi	r22, 0xFF	; 255
     680:	71 e0       	ldi	r23, 0x01	; 1
     682:	0e 94 37 02 	call	0x46e	; 0x46e <_Z6set_brR10brightnessjh>
     686:	89 81       	ldd	r24, Y+1	; 0x01
     688:	28 2f       	mov	r18, r24
     68a:	30 e0       	ldi	r19, 0x00	; 0
     68c:	44 e6       	ldi	r20, 0x64	; 100
     68e:	42 9f       	mul	r20, r18
     690:	c0 01       	movw	r24, r0
     692:	43 9f       	mul	r20, r19
     694:	90 0d       	add	r25, r0
     696:	11 24       	eor	r1, r1
     698:	9c 01       	movw	r18, r24
     69a:	28 51       	subi	r18, 0x18	; 24
     69c:	3c 4f       	sbci	r19, 0xFC	; 252
     69e:	89 81       	ldd	r24, Y+1	; 0x01
     6a0:	86 30       	cpi	r24, 0x06	; 6
     6a2:	18 f4       	brcc	.+6      	; 0x6aa <_Z10enlight_upv+0x196>
     6a4:	88 eb       	ldi	r24, 0xB8	; 184
     6a6:	9b e0       	ldi	r25, 0x0B	; 11
     6a8:	02 c0       	rjmp	.+4      	; 0x6ae <_Z10enlight_upv+0x19a>
     6aa:	80 e0       	ldi	r24, 0x00	; 0
     6ac:	90 e0       	ldi	r25, 0x00	; 0
     6ae:	82 0f       	add	r24, r18
     6b0:	93 1f       	adc	r25, r19
     6b2:	09 2e       	mov	r0, r25
     6b4:	00 0c       	add	r0, r0
     6b6:	aa 0b       	sbc	r26, r26
     6b8:	bb 0b       	sbc	r27, r27
     6ba:	88 af       	std	Y+56, r24	; 0x38
     6bc:	99 af       	std	Y+57, r25	; 0x39
     6be:	aa af       	std	Y+58, r26	; 0x3a
     6c0:	bb af       	std	Y+59, r27	; 0x3b
     6c2:	84 e4       	ldi	r24, 0x44	; 68
     6c4:	91 e0       	ldi	r25, 0x01	; 1
     6c6:	0e 94 3f 06 	call	0xc7e	; 0xc7e <_ZNK17brightness_bufferILh10EE4fullEv>
     6ca:	88 23       	and	r24, r24
     6cc:	09 f0       	breq	.+2      	; 0x6d0 <_Z10enlight_upv+0x1bc>
     6ce:	f9 cf       	rjmp	.-14     	; 0x6c2 <_Z10enlight_upv+0x1ae>
     6d0:	ce 01       	movw	r24, r28
     6d2:	8e 96       	adiw	r24, 0x2e	; 46
     6d4:	bc 01       	movw	r22, r24
     6d6:	84 e4       	ldi	r24, 0x44	; 68
     6d8:	91 e0       	ldi	r25, 0x01	; 1
     6da:	0e 94 5d 06 	call	0xcba	; 0xcba <_ZN17brightness_bufferILh10EE5writeERK10brightness>
     6de:	89 81       	ldd	r24, Y+1	; 0x01
     6e0:	81 50       	subi	r24, 0x01	; 1
     6e2:	89 83       	std	Y+1, r24	; 0x01
     6e4:	c2 cf       	rjmp	.-124    	; 0x66a <_Z10enlight_upv+0x156>
     6e6:	00 00       	nop
     6e8:	eb 96       	adiw	r28, 0x3b	; 59
     6ea:	0f b6       	in	r0, 0x3f	; 63
     6ec:	f8 94       	cli
     6ee:	de bf       	out	0x3e, r29	; 62
     6f0:	0f be       	out	0x3f, r0	; 63
     6f2:	cd bf       	out	0x3d, r28	; 61
     6f4:	df 91       	pop	r29
     6f6:	cf 91       	pop	r28
     6f8:	08 95       	ret

000006fa <_Z26n_th_DIVIDE_TIME_LONGATIONILh4EEjv>:
     6fa:	cf 93       	push	r28
     6fc:	df 93       	push	r29
     6fe:	cd b7       	in	r28, 0x3d	; 61
     700:	de b7       	in	r29, 0x3e	; 62
     702:	88 e5       	ldi	r24, 0x58	; 88
     704:	90 e0       	ldi	r25, 0x00	; 0
     706:	df 91       	pop	r29
     708:	cf 91       	pop	r28
     70a:	08 95       	ret

0000070c <_Z26n_th_DIVIDE_TIME_LONGATIONILh3EEjv>:
constexpr time_type DIVIDE_TIME_LONGATION{ 22 };
constexpr time_type DIVIDE{ DIVIDE_TIME_LONGATION * 5};
constexpr uint8_t br_table_max_index{ 8 };

template <uint8_t I>
constexpr time_type n_th_DIVIDE_TIME_LONGATION(){
     70c:	cf 93       	push	r28
     70e:	df 93       	push	r29
     710:	cd b7       	in	r28, 0x3d	; 61
     712:	de b7       	in	r29, 0x3e	; 62
	return I * DIVIDE_TIME_LONGATION;
     714:	82 e4       	ldi	r24, 0x42	; 66
     716:	90 e0       	ldi	r25, 0x00	; 0
}
     718:	df 91       	pop	r29
     71a:	cf 91       	pop	r28
     71c:	08 95       	ret

0000071e <_Z26n_th_DIVIDE_TIME_LONGATIONILh2EEjv>:
constexpr time_type DIVIDE_TIME_LONGATION{ 22 };
constexpr time_type DIVIDE{ DIVIDE_TIME_LONGATION * 5};
constexpr uint8_t br_table_max_index{ 8 };

template <uint8_t I>
constexpr time_type n_th_DIVIDE_TIME_LONGATION(){
     71e:	cf 93       	push	r28
     720:	df 93       	push	r29
     722:	cd b7       	in	r28, 0x3d	; 61
     724:	de b7       	in	r29, 0x3e	; 62
	return I * DIVIDE_TIME_LONGATION;
     726:	8c e2       	ldi	r24, 0x2C	; 44
     728:	90 e0       	ldi	r25, 0x00	; 0
}
     72a:	df 91       	pop	r29
     72c:	cf 91       	pop	r28
     72e:	08 95       	ret

00000730 <_Z26n_th_DIVIDE_TIME_LONGATIONILh1EEjv>:
constexpr time_type DIVIDE_TIME_LONGATION{ 22 };
constexpr time_type DIVIDE{ DIVIDE_TIME_LONGATION * 5};
constexpr uint8_t br_table_max_index{ 8 };

template <uint8_t I>
constexpr time_type n_th_DIVIDE_TIME_LONGATION(){
     730:	cf 93       	push	r28
     732:	df 93       	push	r29
     734:	cd b7       	in	r28, 0x3d	; 61
     736:	de b7       	in	r29, 0x3e	; 62
	return I * DIVIDE_TIME_LONGATION;
     738:	86 e1       	ldi	r24, 0x16	; 22
     73a:	90 e0       	ldi	r25, 0x00	; 0
}
     73c:	df 91       	pop	r29
     73e:	cf 91       	pop	r28
     740:	08 95       	ret

00000742 <_Z26n_th_DIVIDE_TIME_LONGATIONILh0EEjv>:
constexpr time_type DIVIDE_TIME_LONGATION{ 22 };
constexpr time_type DIVIDE{ DIVIDE_TIME_LONGATION * 5};
constexpr uint8_t br_table_max_index{ 8 };

template <uint8_t I>
constexpr time_type n_th_DIVIDE_TIME_LONGATION(){
     742:	cf 93       	push	r28
     744:	df 93       	push	r29
     746:	cd b7       	in	r28, 0x3d	; 61
     748:	de b7       	in	r29, 0x3e	; 62
	return I * DIVIDE_TIME_LONGATION;
     74a:	80 e0       	ldi	r24, 0x00	; 0
     74c:	90 e0       	ldi	r25, 0x00	; 0
}
     74e:	df 91       	pop	r29
     750:	cf 91       	pop	r28
     752:	08 95       	ret

00000754 <_Z18blink_test_8394782v>:
	//16,
	22,
	35
};

void blink_test_8394782(){
     754:	0f 93       	push	r16
     756:	1f 93       	push	r17
     758:	cf 93       	push	r28
     75a:	df 93       	push	r29
     75c:	cd b7       	in	r28, 0x3d	; 61
     75e:	de b7       	in	r29, 0x3e	; 62
     760:	6b 97       	sbiw	r28, 0x1b	; 27
     762:	0f b6       	in	r0, 0x3f	; 63
     764:	f8 94       	cli
     766:	de bf       	out	0x3e, r29	; 62
     768:	0f be       	out	0x3f, r0	; 63
     76a:	cd bf       	out	0x3d, r28	; 61
	while(true){
		uint8_t ticker{ 0 };
     76c:	19 82       	std	Y+1, r1	; 0x01
		time_type time{ 0 };
     76e:	1b 82       	std	Y+3, r1	; 0x03
     770:	1a 82       	std	Y+2, r1	; 0x02
		constexpr uint16_t LEVEL_0{ 0b1'0000'0001 };
     772:	81 e0       	ldi	r24, 0x01	; 1
     774:	91 e0       	ldi	r25, 0x01	; 1
     776:	99 8b       	std	Y+17, r25	; 0x11
     778:	88 8b       	std	Y+16, r24	; 0x10
		constexpr uint16_t LEVEL_1{ 0b0'1000'0010 };
     77a:	82 e8       	ldi	r24, 0x82	; 130
     77c:	90 e0       	ldi	r25, 0x00	; 0
     77e:	9b 8b       	std	Y+19, r25	; 0x13
     780:	8a 8b       	std	Y+18, r24	; 0x12
		constexpr uint16_t LEVEL_2{ 0b0'0100'0100 };
     782:	84 e4       	ldi	r24, 0x44	; 68
     784:	90 e0       	ldi	r25, 0x00	; 0
     786:	9d 8b       	std	Y+21, r25	; 0x15
     788:	8c 8b       	std	Y+20, r24	; 0x14
		constexpr uint16_t LEVEL_3{ 0b0'0010'1000 };
     78a:	88 e2       	ldi	r24, 0x28	; 40
     78c:	90 e0       	ldi	r25, 0x00	; 0
     78e:	9f 8b       	std	Y+23, r25	; 0x17
     790:	8e 8b       	std	Y+22, r24	; 0x16
		constexpr uint16_t LEVEL_4{ 0b0'0001'0000 };
     792:	80 e1       	ldi	r24, 0x10	; 16
     794:	90 e0       	ldi	r25, 0x00	; 0
     796:	99 8f       	std	Y+25, r25	; 0x19
     798:	88 8f       	std	Y+24, r24	; 0x18

		while (time != T_MAX){
     79a:	8a 81       	ldd	r24, Y+2	; 0x02
     79c:	9b 81       	ldd	r25, Y+3	; 0x03
     79e:	88 31       	cpi	r24, 0x18	; 24
     7a0:	93 40       	sbci	r25, 0x03	; 3
     7a2:	09 f4       	brne	.+2      	; 0x7a6 <_Z18blink_test_8394782v+0x52>
     7a4:	e1 c0       	rjmp	.+450    	; 0x968 <__stack+0x69>
			ticker += 7;
     7a6:	89 81       	ldd	r24, Y+1	; 0x01
     7a8:	89 5f       	subi	r24, 0xF9	; 249
     7aa:	89 83       	std	Y+1, r24	; 0x01
			ticker %= TICKER_MAX;
     7ac:	92 e2       	ldi	r25, 0x22	; 34
     7ae:	89 81       	ldd	r24, Y+1	; 0x01
     7b0:	69 2f       	mov	r22, r25
     7b2:	0e 94 50 08 	call	0x10a0	; 0x10a0 <__udivmodqi4>
     7b6:	89 2f       	mov	r24, r25
     7b8:	89 83       	std	Y+1, r24	; 0x01
			time += (ticker == 0);
     7ba:	81 e0       	ldi	r24, 0x01	; 1
     7bc:	99 81       	ldd	r25, Y+1	; 0x01
     7be:	99 23       	and	r25, r25
     7c0:	09 f0       	breq	.+2      	; 0x7c4 <_Z18blink_test_8394782v+0x70>
     7c2:	80 e0       	ldi	r24, 0x00	; 0
     7c4:	88 2f       	mov	r24, r24
     7c6:	90 e0       	ldi	r25, 0x00	; 0
     7c8:	2a 81       	ldd	r18, Y+2	; 0x02
     7ca:	3b 81       	ldd	r19, Y+3	; 0x03
     7cc:	82 0f       	add	r24, r18
     7ce:	93 1f       	adc	r25, r19
     7d0:	9b 83       	std	Y+3, r25	; 0x03
     7d2:	8a 83       	std	Y+2, r24	; 0x02
			//time %= T_MAX;
			uint16_t bulbs =
			(ticker < br_table[(time + n_th_DIVIDE_TIME_LONGATION<4>()) / DIVIDE ]) * LEVEL_0 |
     7d4:	0e 94 7d 03 	call	0x6fa	; 0x6fa <_Z26n_th_DIVIDE_TIME_LONGATIONILh4EEjv>
     7d8:	9c 01       	movw	r18, r24
     7da:	8a 81       	ldd	r24, Y+2	; 0x02
     7dc:	9b 81       	ldd	r25, Y+3	; 0x03
     7de:	82 0f       	add	r24, r18
     7e0:	93 1f       	adc	r25, r19
     7e2:	96 95       	lsr	r25
     7e4:	87 95       	ror	r24
     7e6:	9c 01       	movw	r18, r24
     7e8:	a3 ef       	ldi	r26, 0xF3	; 243
     7ea:	b4 e9       	ldi	r27, 0x94	; 148
     7ec:	0e 94 5c 08 	call	0x10b8	; 0x10b8 <__umulhisi3>
     7f0:	96 95       	lsr	r25
     7f2:	87 95       	ror	r24
     7f4:	92 95       	swap	r25
     7f6:	82 95       	swap	r24
     7f8:	8f 70       	andi	r24, 0x0F	; 15
     7fa:	89 27       	eor	r24, r25
     7fc:	9f 70       	andi	r25, 0x0F	; 15
     7fe:	89 27       	eor	r24, r25
     800:	86 5d       	subi	r24, 0xD6	; 214
     802:	9e 4f       	sbci	r25, 0xFE	; 254
     804:	fc 01       	movw	r30, r24
     806:	90 81       	ld	r25, Z
     808:	89 81       	ldd	r24, Y+1	; 0x01
     80a:	89 17       	cp	r24, r25
     80c:	18 f4       	brcc	.+6      	; 0x814 <_Z18blink_test_8394782v+0xc0>
     80e:	01 e0       	ldi	r16, 0x01	; 1
     810:	11 e0       	ldi	r17, 0x01	; 1
     812:	02 c0       	rjmp	.+4      	; 0x818 <_Z18blink_test_8394782v+0xc4>
     814:	00 e0       	ldi	r16, 0x00	; 0
     816:	10 e0       	ldi	r17, 0x00	; 0
			(ticker < br_table[(time + n_th_DIVIDE_TIME_LONGATION<3>()) / DIVIDE ]) * LEVEL_1 |
     818:	0e 94 86 03 	call	0x70c	; 0x70c <_Z26n_th_DIVIDE_TIME_LONGATIONILh3EEjv>
     81c:	9c 01       	movw	r18, r24
     81e:	8a 81       	ldd	r24, Y+2	; 0x02
     820:	9b 81       	ldd	r25, Y+3	; 0x03
     822:	82 0f       	add	r24, r18
     824:	93 1f       	adc	r25, r19
     826:	96 95       	lsr	r25
     828:	87 95       	ror	r24
     82a:	9c 01       	movw	r18, r24
     82c:	a3 ef       	ldi	r26, 0xF3	; 243
     82e:	b4 e9       	ldi	r27, 0x94	; 148
     830:	0e 94 5c 08 	call	0x10b8	; 0x10b8 <__umulhisi3>
     834:	96 95       	lsr	r25
     836:	87 95       	ror	r24
     838:	92 95       	swap	r25
     83a:	82 95       	swap	r24
     83c:	8f 70       	andi	r24, 0x0F	; 15
     83e:	89 27       	eor	r24, r25
     840:	9f 70       	andi	r25, 0x0F	; 15
     842:	89 27       	eor	r24, r25
     844:	86 5d       	subi	r24, 0xD6	; 214
     846:	9e 4f       	sbci	r25, 0xFE	; 254
     848:	fc 01       	movw	r30, r24
     84a:	90 81       	ld	r25, Z
     84c:	89 81       	ldd	r24, Y+1	; 0x01
     84e:	89 17       	cp	r24, r25
     850:	18 f4       	brcc	.+6      	; 0x858 <_Z18blink_test_8394782v+0x104>
     852:	82 e8       	ldi	r24, 0x82	; 130
     854:	90 e0       	ldi	r25, 0x00	; 0
     856:	02 c0       	rjmp	.+4      	; 0x85c <_Z18blink_test_8394782v+0x108>
     858:	80 e0       	ldi	r24, 0x00	; 0
     85a:	90 e0       	ldi	r25, 0x00	; 0
			ticker += 7;
			ticker %= TICKER_MAX;
			time += (ticker == 0);
			//time %= T_MAX;
			uint16_t bulbs =
			(ticker < br_table[(time + n_th_DIVIDE_TIME_LONGATION<4>()) / DIVIDE ]) * LEVEL_0 |
     85c:	08 2b       	or	r16, r24
     85e:	19 2b       	or	r17, r25
			(ticker < br_table[(time + n_th_DIVIDE_TIME_LONGATION<3>()) / DIVIDE ]) * LEVEL_1 |
			(ticker < br_table[(time + n_th_DIVIDE_TIME_LONGATION<2>()) / DIVIDE ]) * LEVEL_2 |
     860:	0e 94 8f 03 	call	0x71e	; 0x71e <_Z26n_th_DIVIDE_TIME_LONGATIONILh2EEjv>
     864:	9c 01       	movw	r18, r24
     866:	8a 81       	ldd	r24, Y+2	; 0x02
     868:	9b 81       	ldd	r25, Y+3	; 0x03
     86a:	82 0f       	add	r24, r18
     86c:	93 1f       	adc	r25, r19
     86e:	96 95       	lsr	r25
     870:	87 95       	ror	r24
     872:	9c 01       	movw	r18, r24
     874:	a3 ef       	ldi	r26, 0xF3	; 243
     876:	b4 e9       	ldi	r27, 0x94	; 148
     878:	0e 94 5c 08 	call	0x10b8	; 0x10b8 <__umulhisi3>
     87c:	96 95       	lsr	r25
     87e:	87 95       	ror	r24
     880:	92 95       	swap	r25
     882:	82 95       	swap	r24
     884:	8f 70       	andi	r24, 0x0F	; 15
     886:	89 27       	eor	r24, r25
     888:	9f 70       	andi	r25, 0x0F	; 15
     88a:	89 27       	eor	r24, r25
     88c:	86 5d       	subi	r24, 0xD6	; 214
     88e:	9e 4f       	sbci	r25, 0xFE	; 254
     890:	fc 01       	movw	r30, r24
     892:	90 81       	ld	r25, Z
     894:	89 81       	ldd	r24, Y+1	; 0x01
     896:	89 17       	cp	r24, r25
     898:	18 f4       	brcc	.+6      	; 0x8a0 <_Z18blink_test_8394782v+0x14c>
     89a:	84 e4       	ldi	r24, 0x44	; 68
     89c:	90 e0       	ldi	r25, 0x00	; 0
     89e:	02 c0       	rjmp	.+4      	; 0x8a4 <_Z18blink_test_8394782v+0x150>
     8a0:	80 e0       	ldi	r24, 0x00	; 0
     8a2:	90 e0       	ldi	r25, 0x00	; 0
			ticker %= TICKER_MAX;
			time += (ticker == 0);
			//time %= T_MAX;
			uint16_t bulbs =
			(ticker < br_table[(time + n_th_DIVIDE_TIME_LONGATION<4>()) / DIVIDE ]) * LEVEL_0 |
			(ticker < br_table[(time + n_th_DIVIDE_TIME_LONGATION<3>()) / DIVIDE ]) * LEVEL_1 |
     8a4:	08 2b       	or	r16, r24
     8a6:	19 2b       	or	r17, r25
			(ticker < br_table[(time + n_th_DIVIDE_TIME_LONGATION<2>()) / DIVIDE ]) * LEVEL_2 |
			(ticker < br_table[(time + n_th_DIVIDE_TIME_LONGATION<1>()) / DIVIDE ]) * LEVEL_3 |
     8a8:	0e 94 98 03 	call	0x730	; 0x730 <_Z26n_th_DIVIDE_TIME_LONGATIONILh1EEjv>
     8ac:	9c 01       	movw	r18, r24
     8ae:	8a 81       	ldd	r24, Y+2	; 0x02
     8b0:	9b 81       	ldd	r25, Y+3	; 0x03
     8b2:	82 0f       	add	r24, r18
     8b4:	93 1f       	adc	r25, r19
     8b6:	96 95       	lsr	r25
     8b8:	87 95       	ror	r24
     8ba:	9c 01       	movw	r18, r24
     8bc:	a3 ef       	ldi	r26, 0xF3	; 243
     8be:	b4 e9       	ldi	r27, 0x94	; 148
     8c0:	0e 94 5c 08 	call	0x10b8	; 0x10b8 <__umulhisi3>
     8c4:	96 95       	lsr	r25
     8c6:	87 95       	ror	r24
     8c8:	92 95       	swap	r25
     8ca:	82 95       	swap	r24
     8cc:	8f 70       	andi	r24, 0x0F	; 15
     8ce:	89 27       	eor	r24, r25
     8d0:	9f 70       	andi	r25, 0x0F	; 15
     8d2:	89 27       	eor	r24, r25
     8d4:	86 5d       	subi	r24, 0xD6	; 214
     8d6:	9e 4f       	sbci	r25, 0xFE	; 254
     8d8:	fc 01       	movw	r30, r24
     8da:	90 81       	ld	r25, Z
     8dc:	89 81       	ldd	r24, Y+1	; 0x01
     8de:	89 17       	cp	r24, r25
     8e0:	18 f4       	brcc	.+6      	; 0x8e8 <_Z18blink_test_8394782v+0x194>
     8e2:	88 e2       	ldi	r24, 0x28	; 40
     8e4:	90 e0       	ldi	r25, 0x00	; 0
     8e6:	02 c0       	rjmp	.+4      	; 0x8ec <_Z18blink_test_8394782v+0x198>
     8e8:	80 e0       	ldi	r24, 0x00	; 0
     8ea:	90 e0       	ldi	r25, 0x00	; 0
			time += (ticker == 0);
			//time %= T_MAX;
			uint16_t bulbs =
			(ticker < br_table[(time + n_th_DIVIDE_TIME_LONGATION<4>()) / DIVIDE ]) * LEVEL_0 |
			(ticker < br_table[(time + n_th_DIVIDE_TIME_LONGATION<3>()) / DIVIDE ]) * LEVEL_1 |
			(ticker < br_table[(time + n_th_DIVIDE_TIME_LONGATION<2>()) / DIVIDE ]) * LEVEL_2 |
     8ec:	08 2b       	or	r16, r24
     8ee:	19 2b       	or	r17, r25
			(ticker < br_table[(time + n_th_DIVIDE_TIME_LONGATION<1>()) / DIVIDE ]) * LEVEL_3 |
			(ticker < br_table[(time + n_th_DIVIDE_TIME_LONGATION<0>()) / DIVIDE ]) * LEVEL_4;
     8f0:	0e 94 a1 03 	call	0x742	; 0x742 <_Z26n_th_DIVIDE_TIME_LONGATIONILh0EEjv>
     8f4:	9c 01       	movw	r18, r24
     8f6:	8a 81       	ldd	r24, Y+2	; 0x02
     8f8:	9b 81       	ldd	r25, Y+3	; 0x03
     8fa:	82 0f       	add	r24, r18
     8fc:	93 1f       	adc	r25, r19
     8fe:	96 95       	lsr	r25
     900:	87 95       	ror	r24
     902:	9c 01       	movw	r18, r24
     904:	a3 ef       	ldi	r26, 0xF3	; 243
     906:	b4 e9       	ldi	r27, 0x94	; 148
     908:	0e 94 5c 08 	call	0x10b8	; 0x10b8 <__umulhisi3>
     90c:	96 95       	lsr	r25
     90e:	87 95       	ror	r24
     910:	92 95       	swap	r25
     912:	82 95       	swap	r24
     914:	8f 70       	andi	r24, 0x0F	; 15
     916:	89 27       	eor	r24, r25
     918:	9f 70       	andi	r25, 0x0F	; 15
     91a:	89 27       	eor	r24, r25
     91c:	86 5d       	subi	r24, 0xD6	; 214
     91e:	9e 4f       	sbci	r25, 0xFE	; 254
     920:	fc 01       	movw	r30, r24
     922:	90 81       	ld	r25, Z
     924:	89 81       	ldd	r24, Y+1	; 0x01
     926:	89 17       	cp	r24, r25
     928:	18 f4       	brcc	.+6      	; 0x930 <__stack+0x31>
     92a:	80 e1       	ldi	r24, 0x10	; 16
     92c:	90 e0       	ldi	r25, 0x00	; 0
     92e:	02 c0       	rjmp	.+4      	; 0x934 <__stack+0x35>
     930:	80 e0       	ldi	r24, 0x00	; 0
     932:	90 e0       	ldi	r25, 0x00	; 0
     934:	80 2b       	or	r24, r16
     936:	91 2b       	or	r25, r17
     938:	9b 8f       	std	Y+27, r25	; 0x1b
     93a:	8a 8f       	std	Y+26, r24	; 0x1a
			PORTD = bulbs & 0xFF;
     93c:	8b e2       	ldi	r24, 0x2B	; 43
     93e:	90 e0       	ldi	r25, 0x00	; 0
     940:	2a 8d       	ldd	r18, Y+26	; 0x1a
     942:	fc 01       	movw	r30, r24
     944:	20 83       	st	Z, r18
			PORTB = (PORTB & ~0b1) | (0b1 & (bulbs >> 8));
     946:	85 e2       	ldi	r24, 0x25	; 37
     948:	90 e0       	ldi	r25, 0x00	; 0
     94a:	25 e2       	ldi	r18, 0x25	; 37
     94c:	30 e0       	ldi	r19, 0x00	; 0
     94e:	f9 01       	movw	r30, r18
     950:	20 81       	ld	r18, Z
     952:	42 2f       	mov	r20, r18
     954:	4e 7f       	andi	r20, 0xFE	; 254
     956:	2a 8d       	ldd	r18, Y+26	; 0x1a
     958:	3b 8d       	ldd	r19, Y+27	; 0x1b
     95a:	23 2f       	mov	r18, r19
     95c:	33 27       	eor	r19, r19
     95e:	21 70       	andi	r18, 0x01	; 1
     960:	24 2b       	or	r18, r20
     962:	fc 01       	movw	r30, r24
     964:	20 83       	st	Z, r18
		constexpr uint16_t LEVEL_1{ 0b0'1000'0010 };
		constexpr uint16_t LEVEL_2{ 0b0'0100'0100 };
		constexpr uint16_t LEVEL_3{ 0b0'0010'1000 };
		constexpr uint16_t LEVEL_4{ 0b0'0001'0000 };

		while (time != T_MAX){
     966:	19 cf       	rjmp	.-462    	; 0x79a <_Z18blink_test_8394782v+0x46>
			(ticker < br_table[(time + n_th_DIVIDE_TIME_LONGATION<0>()) / DIVIDE ]) * LEVEL_4;
			PORTD = bulbs & 0xFF;
			PORTB = (PORTB & ~0b1) | (0b1 & (bulbs >> 8));
			//while (time == 30){}
		}
		PORTD = 0xFF;
     968:	8b e2       	ldi	r24, 0x2B	; 43
     96a:	90 e0       	ldi	r25, 0x00	; 0
     96c:	2f ef       	ldi	r18, 0xFF	; 255
     96e:	fc 01       	movw	r30, r24
     970:	20 83       	st	Z, r18
		PORTB |= 0b1;
     972:	85 e2       	ldi	r24, 0x25	; 37
     974:	90 e0       	ldi	r25, 0x00	; 0
     976:	25 e2       	ldi	r18, 0x25	; 37
     978:	30 e0       	ldi	r19, 0x00	; 0
     97a:	f9 01       	movw	r30, r18
     97c:	20 81       	ld	r18, Z
     97e:	21 60       	ori	r18, 0x01	; 1
     980:	fc 01       	movw	r30, r24
     982:	20 83       	st	Z, r18
		for (uint32_t wait=0; wait < 100000ull; ++wait) /* wait */;
     984:	1c 82       	std	Y+4, r1	; 0x04
     986:	1d 82       	std	Y+5, r1	; 0x05
     988:	1e 82       	std	Y+6, r1	; 0x06
     98a:	1f 82       	std	Y+7, r1	; 0x07
     98c:	8c 81       	ldd	r24, Y+4	; 0x04
     98e:	9d 81       	ldd	r25, Y+5	; 0x05
     990:	ae 81       	ldd	r26, Y+6	; 0x06
     992:	bf 81       	ldd	r27, Y+7	; 0x07
     994:	80 3a       	cpi	r24, 0xA0	; 160
     996:	96 48       	sbci	r25, 0x86	; 134
     998:	a1 40       	sbci	r26, 0x01	; 1
     99a:	b1 05       	cpc	r27, r1
     99c:	60 f4       	brcc	.+24     	; 0x9b6 <__stack+0xb7>
     99e:	8c 81       	ldd	r24, Y+4	; 0x04
     9a0:	9d 81       	ldd	r25, Y+5	; 0x05
     9a2:	ae 81       	ldd	r26, Y+6	; 0x06
     9a4:	bf 81       	ldd	r27, Y+7	; 0x07
     9a6:	01 96       	adiw	r24, 0x01	; 1
     9a8:	a1 1d       	adc	r26, r1
     9aa:	b1 1d       	adc	r27, r1
     9ac:	8c 83       	std	Y+4, r24	; 0x04
     9ae:	9d 83       	std	Y+5, r25	; 0x05
     9b0:	ae 83       	std	Y+6, r26	; 0x06
     9b2:	bf 83       	std	Y+7, r27	; 0x07
     9b4:	eb cf       	rjmp	.-42     	; 0x98c <__stack+0x8d>
		for (uint8_t br = 255; br != 0; --br){
     9b6:	8f ef       	ldi	r24, 0xFF	; 255
     9b8:	88 87       	std	Y+8, r24	; 0x08
     9ba:	88 85       	ldd	r24, Y+8	; 0x08
     9bc:	88 23       	and	r24, r24
     9be:	c1 f1       	breq	.+112    	; 0xa30 <__stack+0x131>
			for (uint16_t i = 0; i < 5; ++i){
     9c0:	1a 86       	std	Y+10, r1	; 0x0a
     9c2:	19 86       	std	Y+9, r1	; 0x09
     9c4:	89 85       	ldd	r24, Y+9	; 0x09
     9c6:	9a 85       	ldd	r25, Y+10	; 0x0a
     9c8:	05 97       	sbiw	r24, 0x05	; 5
     9ca:	70 f5       	brcc	.+92     	; 0xa28 <__stack+0x129>
				for(uint8_t pwm = 0; pwm < 255; ++pwm){
     9cc:	1b 86       	std	Y+11, r1	; 0x0b
     9ce:	8b 85       	ldd	r24, Y+11	; 0x0b
     9d0:	8f 3f       	cpi	r24, 0xFF	; 255
     9d2:	21 f1       	breq	.+72     	; 0xa1c <__stack+0x11d>
					if (pwm < br){
     9d4:	9b 85       	ldd	r25, Y+11	; 0x0b
     9d6:	88 85       	ldd	r24, Y+8	; 0x08
     9d8:	98 17       	cp	r25, r24
     9da:	78 f4       	brcc	.+30     	; 0x9fa <__stack+0xfb>
						PORTD = 0xFF;
     9dc:	8b e2       	ldi	r24, 0x2B	; 43
     9de:	90 e0       	ldi	r25, 0x00	; 0
     9e0:	2f ef       	ldi	r18, 0xFF	; 255
     9e2:	fc 01       	movw	r30, r24
     9e4:	20 83       	st	Z, r18
						PORTB |= 0b1;
     9e6:	85 e2       	ldi	r24, 0x25	; 37
     9e8:	90 e0       	ldi	r25, 0x00	; 0
     9ea:	25 e2       	ldi	r18, 0x25	; 37
     9ec:	30 e0       	ldi	r19, 0x00	; 0
     9ee:	f9 01       	movw	r30, r18
     9f0:	20 81       	ld	r18, Z
     9f2:	21 60       	ori	r18, 0x01	; 1
     9f4:	fc 01       	movw	r30, r24
     9f6:	20 83       	st	Z, r18
     9f8:	0d c0       	rjmp	.+26     	; 0xa14 <__stack+0x115>
						} else {
						PORTD = 0;
     9fa:	8b e2       	ldi	r24, 0x2B	; 43
     9fc:	90 e0       	ldi	r25, 0x00	; 0
     9fe:	fc 01       	movw	r30, r24
     a00:	10 82       	st	Z, r1
						PORTB &= ~0b1;
     a02:	85 e2       	ldi	r24, 0x25	; 37
     a04:	90 e0       	ldi	r25, 0x00	; 0
     a06:	25 e2       	ldi	r18, 0x25	; 37
     a08:	30 e0       	ldi	r19, 0x00	; 0
     a0a:	f9 01       	movw	r30, r18
     a0c:	20 81       	ld	r18, Z
     a0e:	2e 7f       	andi	r18, 0xFE	; 254
     a10:	fc 01       	movw	r30, r24
     a12:	20 83       	st	Z, r18
		PORTD = 0xFF;
		PORTB |= 0b1;
		for (uint32_t wait=0; wait < 100000ull; ++wait) /* wait */;
		for (uint8_t br = 255; br != 0; --br){
			for (uint16_t i = 0; i < 5; ++i){
				for(uint8_t pwm = 0; pwm < 255; ++pwm){
     a14:	8b 85       	ldd	r24, Y+11	; 0x0b
     a16:	8f 5f       	subi	r24, 0xFF	; 255
     a18:	8b 87       	std	Y+11, r24	; 0x0b
     a1a:	d9 cf       	rjmp	.-78     	; 0x9ce <__stack+0xcf>
		}
		PORTD = 0xFF;
		PORTB |= 0b1;
		for (uint32_t wait=0; wait < 100000ull; ++wait) /* wait */;
		for (uint8_t br = 255; br != 0; --br){
			for (uint16_t i = 0; i < 5; ++i){
     a1c:	89 85       	ldd	r24, Y+9	; 0x09
     a1e:	9a 85       	ldd	r25, Y+10	; 0x0a
     a20:	01 96       	adiw	r24, 0x01	; 1
     a22:	9a 87       	std	Y+10, r25	; 0x0a
     a24:	89 87       	std	Y+9, r24	; 0x09
     a26:	ce cf       	rjmp	.-100    	; 0x9c4 <__stack+0xc5>
			//while (time == 30){}
		}
		PORTD = 0xFF;
		PORTB |= 0b1;
		for (uint32_t wait=0; wait < 100000ull; ++wait) /* wait */;
		for (uint8_t br = 255; br != 0; --br){
     a28:	88 85       	ldd	r24, Y+8	; 0x08
     a2a:	81 50       	subi	r24, 0x01	; 1
     a2c:	88 87       	std	Y+8, r24	; 0x08
     a2e:	c5 cf       	rjmp	.-118    	; 0x9ba <__stack+0xbb>
						PORTB &= ~0b1;
					}
				}
			}
		}
		PORTD = 0;
     a30:	8b e2       	ldi	r24, 0x2B	; 43
     a32:	90 e0       	ldi	r25, 0x00	; 0
     a34:	fc 01       	movw	r30, r24
     a36:	10 82       	st	Z, r1
		PORTB &= ~0b1;
     a38:	85 e2       	ldi	r24, 0x25	; 37
     a3a:	90 e0       	ldi	r25, 0x00	; 0
     a3c:	25 e2       	ldi	r18, 0x25	; 37
     a3e:	30 e0       	ldi	r19, 0x00	; 0
     a40:	f9 01       	movw	r30, r18
     a42:	20 81       	ld	r18, Z
     a44:	2e 7f       	andi	r18, 0xFE	; 254
     a46:	fc 01       	movw	r30, r24
     a48:	20 83       	st	Z, r18
		for (uint32_t wait=0; wait < 100000ull; ++wait) /* wait */;
     a4a:	1c 86       	std	Y+12, r1	; 0x0c
     a4c:	1d 86       	std	Y+13, r1	; 0x0d
     a4e:	1e 86       	std	Y+14, r1	; 0x0e
     a50:	1f 86       	std	Y+15, r1	; 0x0f
     a52:	8c 85       	ldd	r24, Y+12	; 0x0c
     a54:	9d 85       	ldd	r25, Y+13	; 0x0d
     a56:	ae 85       	ldd	r26, Y+14	; 0x0e
     a58:	bf 85       	ldd	r27, Y+15	; 0x0f
     a5a:	80 3a       	cpi	r24, 0xA0	; 160
     a5c:	96 48       	sbci	r25, 0x86	; 134
     a5e:	a1 40       	sbci	r26, 0x01	; 1
     a60:	b1 05       	cpc	r27, r1
     a62:	08 f0       	brcs	.+2      	; 0xa66 <__stack+0x167>
     a64:	83 ce       	rjmp	.-762    	; 0x76c <_Z18blink_test_8394782v+0x18>
     a66:	8c 85       	ldd	r24, Y+12	; 0x0c
     a68:	9d 85       	ldd	r25, Y+13	; 0x0d
     a6a:	ae 85       	ldd	r26, Y+14	; 0x0e
     a6c:	bf 85       	ldd	r27, Y+15	; 0x0f
     a6e:	01 96       	adiw	r24, 0x01	; 1
     a70:	a1 1d       	adc	r26, r1
     a72:	b1 1d       	adc	r27, r1
     a74:	8c 87       	std	Y+12, r24	; 0x0c
     a76:	9d 87       	std	Y+13, r25	; 0x0d
     a78:	ae 87       	std	Y+14, r26	; 0x0e
     a7a:	bf 87       	std	Y+15, r27	; 0x0f
     a7c:	ea cf       	rjmp	.-44     	; 0xa52 <__stack+0x153>

00000a7e <main>:
	}
}

int main(void)
{
     a7e:	cf 93       	push	r28
     a80:	df 93       	push	r29
     a82:	cd b7       	in	r28, 0x3d	; 61
     a84:	de b7       	in	r29, 0x3e	; 62
     a86:	60 97       	sbiw	r28, 0x10	; 16
     a88:	0f b6       	in	r0, 0x3f	; 63
     a8a:	f8 94       	cli
     a8c:	de bf       	out	0x3e, r29	; 62
     a8e:	0f be       	out	0x3f, r0	; 63
     a90:	cd bf       	out	0x3d, r28	; 61
	auto& all{ bulb::buffer };
     a92:	84 e4       	ldi	r24, 0x44	; 68
     a94:	91 e0       	ldi	r25, 0x01	; 1
     a96:	9a 83       	std	Y+2, r25	; 0x02
     a98:	89 83       	std	Y+1, r24	; 0x01
	
	pin_init();
     a9a:	0e 94 f4 00 	call	0x1e8	; 0x1e8 <_Z8pin_initv>
	
	blink_test_8394782();
     a9e:	0e 94 aa 03 	call	0x754	; 0x754 <_Z18blink_test_8394782v>
	//super_init_timers();
	//the_clock.set();
	
	// brightness callibration
	
	reset_timer_1();
     aa2:	0e 94 6a 00 	call	0xd4	; 0xd4 <_Z13reset_timer_1v>
	activate_timer1_compare_match_interrupt_A(50, update_arc, true);
     aa6:	41 e0       	ldi	r20, 0x01	; 1
     aa8:	6d ed       	ldi	r22, 0xDD	; 221
     aaa:	71 e0       	ldi	r23, 0x01	; 1
     aac:	82 e3       	ldi	r24, 0x32	; 50
     aae:	90 e0       	ldi	r25, 0x00	; 0
     ab0:	0e 94 91 00 	call	0x122	; 0x122 <_Z41activate_timer1_compare_match_interrupt_AjPFvvEb>
	
	start_timer1_prescaler_1();
     ab4:	0e 94 80 00 	call	0x100	; 0x100 <_Z24start_timer1_prescaler_1v>
	
	while (true)
	{
		enlight_up();
     ab8:	0e 94 8a 02 	call	0x514	; 0x514 <_Z10enlight_upv>
	reset_timer_1();
	activate_timer1_compare_match_interrupt_A(50, update_arc, true);
	
	start_timer1_prescaler_1();
	
	while (true)
     abc:	fd cf       	rjmp	.-6      	; 0xab8 <main+0x3a>

00000abe <_ZN17brightness_bufferILh10EE29unsafe_uninterrupted_read_ptrERPK10brightness>:
	next_read %= _Buffer_Size;
	
	return true;
	}
	*/
	bool unsafe_uninterrupted_read_ptr(const brightness*& ptr){
     abe:	cf 93       	push	r28
     ac0:	df 93       	push	r29
     ac2:	cd b7       	in	r28, 0x3d	; 61
     ac4:	de b7       	in	r29, 0x3e	; 62
     ac6:	28 97       	sbiw	r28, 0x08	; 8
     ac8:	0f b6       	in	r0, 0x3f	; 63
     aca:	f8 94       	cli
     acc:	de bf       	out	0x3e, r29	; 62
     ace:	0f be       	out	0x3f, r0	; 63
     ad0:	cd bf       	out	0x3d, r28	; 61
     ad2:	9a 83       	std	Y+2, r25	; 0x02
     ad4:	89 83       	std	Y+1, r24	; 0x01
     ad6:	7c 83       	std	Y+4, r23	; 0x04
     ad8:	6b 83       	std	Y+3, r22	; 0x03
		if (unsafe_empty()) return false;
     ada:	89 81       	ldd	r24, Y+1	; 0x01
     adc:	9a 81       	ldd	r25, Y+2	; 0x02
     ade:	0e 94 d5 06 	call	0xdaa	; 0xdaa <_ZNK17brightness_bufferILh10EE12unsafe_emptyEv>
     ae2:	88 23       	and	r24, r24
     ae4:	11 f0       	breq	.+4      	; 0xaea <_ZN17brightness_bufferILh10EE29unsafe_uninterrupted_read_ptrERPK10brightness+0x2c>
     ae6:	80 e0       	ldi	r24, 0x00	; 0
     ae8:	c1 c0       	rjmp	.+386    	; 0xc6c <_ZN17brightness_bufferILh10EE29unsafe_uninterrupted_read_ptrERPK10brightness+0x1ae>
		ptr = &_buffer[next_read];
     aea:	89 81       	ldd	r24, Y+1	; 0x01
     aec:	9a 81       	ldd	r25, Y+2	; 0x02
     aee:	84 57       	subi	r24, 0x74	; 116
     af0:	9f 4f       	sbci	r25, 0xFF	; 255
     af2:	dc 01       	movw	r26, r24
     af4:	8c 91       	ld	r24, X
     af6:	88 2f       	mov	r24, r24
     af8:	90 e0       	ldi	r25, 0x00	; 0
     afa:	9c 01       	movw	r18, r24
     afc:	c9 01       	movw	r24, r18
     afe:	88 0f       	add	r24, r24
     b00:	99 1f       	adc	r25, r25
     b02:	9c 01       	movw	r18, r24
     b04:	c9 01       	movw	r24, r18
     b06:	88 0f       	add	r24, r24
     b08:	99 1f       	adc	r25, r25
     b0a:	88 0f       	add	r24, r24
     b0c:	99 1f       	adc	r25, r25
     b0e:	88 0f       	add	r24, r24
     b10:	99 1f       	adc	r25, r25
     b12:	82 1b       	sub	r24, r18
     b14:	93 0b       	sbc	r25, r19
     b16:	29 81       	ldd	r18, Y+1	; 0x01
     b18:	3a 81       	ldd	r19, Y+2	; 0x02
     b1a:	28 0f       	add	r18, r24
     b1c:	39 1f       	adc	r19, r25
     b1e:	8b 81       	ldd	r24, Y+3	; 0x03
     b20:	9c 81       	ldd	r25, Y+4	; 0x04
     b22:	fc 01       	movw	r30, r24
     b24:	31 83       	std	Z+1, r19	; 0x01
     b26:	20 83       	st	Z, r18
		if (_buffer[next_read].repeat == 0){
     b28:	89 81       	ldd	r24, Y+1	; 0x01
     b2a:	9a 81       	ldd	r25, Y+2	; 0x02
     b2c:	84 57       	subi	r24, 0x74	; 116
     b2e:	9f 4f       	sbci	r25, 0xFF	; 255
     b30:	dc 01       	movw	r26, r24
     b32:	8c 91       	ld	r24, X
     b34:	88 2f       	mov	r24, r24
     b36:	90 e0       	ldi	r25, 0x00	; 0
     b38:	49 81       	ldd	r20, Y+1	; 0x01
     b3a:	5a 81       	ldd	r21, Y+2	; 0x02
     b3c:	9c 01       	movw	r18, r24
     b3e:	c9 01       	movw	r24, r18
     b40:	88 0f       	add	r24, r24
     b42:	99 1f       	adc	r25, r25
     b44:	9c 01       	movw	r18, r24
     b46:	c9 01       	movw	r24, r18
     b48:	88 0f       	add	r24, r24
     b4a:	99 1f       	adc	r25, r25
     b4c:	88 0f       	add	r24, r24
     b4e:	99 1f       	adc	r25, r25
     b50:	88 0f       	add	r24, r24
     b52:	99 1f       	adc	r25, r25
     b54:	82 1b       	sub	r24, r18
     b56:	93 0b       	sbc	r25, r19
     b58:	84 0f       	add	r24, r20
     b5a:	95 1f       	adc	r25, r21
     b5c:	0a 96       	adiw	r24, 0x0a	; 10
     b5e:	fc 01       	movw	r30, r24
     b60:	80 81       	ld	r24, Z
     b62:	91 81       	ldd	r25, Z+1	; 0x01
     b64:	a2 81       	ldd	r26, Z+2	; 0x02
     b66:	b3 81       	ldd	r27, Z+3	; 0x03
     b68:	89 2b       	or	r24, r25
     b6a:	8a 2b       	or	r24, r26
     b6c:	8b 2b       	or	r24, r27
     b6e:	c9 f5       	brne	.+114    	; 0xbe2 <_ZN17brightness_bufferILh10EE29unsafe_uninterrupted_read_ptrERPK10brightness+0x124>
			--filled;
     b70:	89 81       	ldd	r24, Y+1	; 0x01
     b72:	9a 81       	ldd	r25, Y+2	; 0x02
     b74:	82 57       	subi	r24, 0x72	; 114
     b76:	9f 4f       	sbci	r25, 0xFF	; 255
     b78:	dc 01       	movw	r26, r24
     b7a:	8c 91       	ld	r24, X
     b7c:	2f ef       	ldi	r18, 0xFF	; 255
     b7e:	28 0f       	add	r18, r24
     b80:	89 81       	ldd	r24, Y+1	; 0x01
     b82:	9a 81       	ldd	r25, Y+2	; 0x02
     b84:	82 57       	subi	r24, 0x72	; 114
     b86:	9f 4f       	sbci	r25, 0xFF	; 255
     b88:	fc 01       	movw	r30, r24
     b8a:	20 83       	st	Z, r18
			++next_read;
     b8c:	89 81       	ldd	r24, Y+1	; 0x01
     b8e:	9a 81       	ldd	r25, Y+2	; 0x02
     b90:	84 57       	subi	r24, 0x74	; 116
     b92:	9f 4f       	sbci	r25, 0xFF	; 255
     b94:	dc 01       	movw	r26, r24
     b96:	8c 91       	ld	r24, X
     b98:	21 e0       	ldi	r18, 0x01	; 1
     b9a:	28 0f       	add	r18, r24
     b9c:	89 81       	ldd	r24, Y+1	; 0x01
     b9e:	9a 81       	ldd	r25, Y+2	; 0x02
     ba0:	84 57       	subi	r24, 0x74	; 116
     ba2:	9f 4f       	sbci	r25, 0xFF	; 255
     ba4:	fc 01       	movw	r30, r24
     ba6:	20 83       	st	Z, r18
			next_read %= _Buffer_Size;
     ba8:	89 81       	ldd	r24, Y+1	; 0x01
     baa:	9a 81       	ldd	r25, Y+2	; 0x02
     bac:	84 57       	subi	r24, 0x74	; 116
     bae:	9f 4f       	sbci	r25, 0xFF	; 255
     bb0:	dc 01       	movw	r26, r24
     bb2:	9c 91       	ld	r25, X
     bb4:	8d ec       	ldi	r24, 0xCD	; 205
     bb6:	98 9f       	mul	r25, r24
     bb8:	81 2d       	mov	r24, r1
     bba:	11 24       	eor	r1, r1
     bbc:	28 2f       	mov	r18, r24
     bbe:	26 95       	lsr	r18
     bc0:	26 95       	lsr	r18
     bc2:	26 95       	lsr	r18
     bc4:	82 2f       	mov	r24, r18
     bc6:	88 0f       	add	r24, r24
     bc8:	28 2f       	mov	r18, r24
     bca:	22 0f       	add	r18, r18
     bcc:	22 0f       	add	r18, r18
     bce:	82 0f       	add	r24, r18
     bd0:	29 2f       	mov	r18, r25
     bd2:	28 1b       	sub	r18, r24
     bd4:	89 81       	ldd	r24, Y+1	; 0x01
     bd6:	9a 81       	ldd	r25, Y+2	; 0x02
     bd8:	84 57       	subi	r24, 0x74	; 116
     bda:	9f 4f       	sbci	r25, 0xFF	; 255
     bdc:	fc 01       	movw	r30, r24
     bde:	20 83       	st	Z, r18
     be0:	44 c0       	rjmp	.+136    	; 0xc6a <_ZN17brightness_bufferILh10EE29unsafe_uninterrupted_read_ptrERPK10brightness+0x1ac>
		}
		else {
			--_buffer[next_read].repeat;
     be2:	89 81       	ldd	r24, Y+1	; 0x01
     be4:	9a 81       	ldd	r25, Y+2	; 0x02
     be6:	84 57       	subi	r24, 0x74	; 116
     be8:	9f 4f       	sbci	r25, 0xFF	; 255
     bea:	dc 01       	movw	r26, r24
     bec:	8c 91       	ld	r24, X
     bee:	e8 2f       	mov	r30, r24
     bf0:	f0 e0       	ldi	r31, 0x00	; 0
     bf2:	49 81       	ldd	r20, Y+1	; 0x01
     bf4:	5a 81       	ldd	r21, Y+2	; 0x02
     bf6:	9f 01       	movw	r18, r30
     bf8:	c9 01       	movw	r24, r18
     bfa:	88 0f       	add	r24, r24
     bfc:	99 1f       	adc	r25, r25
     bfe:	9c 01       	movw	r18, r24
     c00:	c9 01       	movw	r24, r18
     c02:	88 0f       	add	r24, r24
     c04:	99 1f       	adc	r25, r25
     c06:	88 0f       	add	r24, r24
     c08:	99 1f       	adc	r25, r25
     c0a:	88 0f       	add	r24, r24
     c0c:	99 1f       	adc	r25, r25
     c0e:	82 1b       	sub	r24, r18
     c10:	93 0b       	sbc	r25, r19
     c12:	84 0f       	add	r24, r20
     c14:	95 1f       	adc	r25, r21
     c16:	0a 96       	adiw	r24, 0x0a	; 10
     c18:	dc 01       	movw	r26, r24
     c1a:	2d 91       	ld	r18, X+
     c1c:	3d 91       	ld	r19, X+
     c1e:	4d 91       	ld	r20, X+
     c20:	5c 91       	ld	r21, X
     c22:	2d 83       	std	Y+5, r18	; 0x05
     c24:	3e 83       	std	Y+6, r19	; 0x06
     c26:	4f 83       	std	Y+7, r20	; 0x07
     c28:	58 87       	std	Y+8, r21	; 0x08
     c2a:	8d 81       	ldd	r24, Y+5	; 0x05
     c2c:	9e 81       	ldd	r25, Y+6	; 0x06
     c2e:	af 81       	ldd	r26, Y+7	; 0x07
     c30:	b8 85       	ldd	r27, Y+8	; 0x08
     c32:	01 97       	sbiw	r24, 0x01	; 1
     c34:	a1 09       	sbc	r26, r1
     c36:	b1 09       	sbc	r27, r1
     c38:	69 81       	ldd	r22, Y+1	; 0x01
     c3a:	7a 81       	ldd	r23, Y+2	; 0x02
     c3c:	af 01       	movw	r20, r30
     c3e:	9a 01       	movw	r18, r20
     c40:	22 0f       	add	r18, r18
     c42:	33 1f       	adc	r19, r19
     c44:	a9 01       	movw	r20, r18
     c46:	9a 01       	movw	r18, r20
     c48:	22 0f       	add	r18, r18
     c4a:	33 1f       	adc	r19, r19
     c4c:	22 0f       	add	r18, r18
     c4e:	33 1f       	adc	r19, r19
     c50:	22 0f       	add	r18, r18
     c52:	33 1f       	adc	r19, r19
     c54:	24 1b       	sub	r18, r20
     c56:	35 0b       	sbc	r19, r21
     c58:	26 0f       	add	r18, r22
     c5a:	37 1f       	adc	r19, r23
     c5c:	26 5f       	subi	r18, 0xF6	; 246
     c5e:	3f 4f       	sbci	r19, 0xFF	; 255
     c60:	f9 01       	movw	r30, r18
     c62:	80 83       	st	Z, r24
     c64:	91 83       	std	Z+1, r25	; 0x01
     c66:	a2 83       	std	Z+2, r26	; 0x02
     c68:	b3 83       	std	Z+3, r27	; 0x03
		}
		return true;
     c6a:	81 e0       	ldi	r24, 0x01	; 1
	}
     c6c:	28 96       	adiw	r28, 0x08	; 8
     c6e:	0f b6       	in	r0, 0x3f	; 63
     c70:	f8 94       	cli
     c72:	de bf       	out	0x3e, r29	; 62
     c74:	0f be       	out	0x3f, r0	; 63
     c76:	cd bf       	out	0x3d, r28	; 61
     c78:	df 91       	pop	r29
     c7a:	cf 91       	pop	r28
     c7c:	08 95       	ret

00000c7e <_ZNK17brightness_bufferILh10EE4fullEv>:
	public:
	bool empty() const {
		auto lock = fsl::hw::simple_atomic();
		return unsafe_empty();
	}
	bool full() const {
     c7e:	1f 93       	push	r17
     c80:	cf 93       	push	r28
     c82:	df 93       	push	r29
     c84:	00 d0       	rcall	.+0      	; 0xc86 <_ZNK17brightness_bufferILh10EE4fullEv+0x8>
     c86:	1f 92       	push	r1
     c88:	cd b7       	in	r28, 0x3d	; 61
     c8a:	de b7       	in	r29, 0x3e	; 62
     c8c:	9b 83       	std	Y+3, r25	; 0x03
     c8e:	8a 83       	std	Y+2, r24	; 0x02
		fsl::hw::simple_atomic lock;
     c90:	ce 01       	movw	r24, r28
     c92:	01 96       	adiw	r24, 0x01	; 1
     c94:	0e 94 c9 00 	call	0x192	; 0x192 <_ZN3fsl2hw13simple_atomicC1Ev>
		return unsafe_full();
     c98:	8a 81       	ldd	r24, Y+2	; 0x02
     c9a:	9b 81       	ldd	r25, Y+3	; 0x03
     c9c:	0e 94 eb 06 	call	0xdd6	; 0xdd6 <_ZNK17brightness_bufferILh10EE11unsafe_fullEv>
     ca0:	18 2f       	mov	r17, r24
	bool empty() const {
		auto lock = fsl::hw::simple_atomic();
		return unsafe_empty();
	}
	bool full() const {
		fsl::hw::simple_atomic lock;
     ca2:	ce 01       	movw	r24, r28
     ca4:	01 96       	adiw	r24, 0x01	; 1
     ca6:	0e 94 df 00 	call	0x1be	; 0x1be <_ZN3fsl2hw13simple_atomicD1Ev>
		return unsafe_full();
     caa:	81 2f       	mov	r24, r17
	}
     cac:	0f 90       	pop	r0
     cae:	0f 90       	pop	r0
     cb0:	0f 90       	pop	r0
     cb2:	df 91       	pop	r29
     cb4:	cf 91       	pop	r28
     cb6:	1f 91       	pop	r17
     cb8:	08 95       	ret

00000cba <_ZN17brightness_bufferILh10EE5writeERK10brightness>:
	
	bool write(const brightness& element){
     cba:	1f 93       	push	r17
     cbc:	cf 93       	push	r28
     cbe:	df 93       	push	r29
     cc0:	00 d0       	rcall	.+0      	; 0xcc2 <_ZN17brightness_bufferILh10EE5writeERK10brightness+0x8>
     cc2:	00 d0       	rcall	.+0      	; 0xcc4 <_ZN17brightness_bufferILh10EE5writeERK10brightness+0xa>
     cc4:	1f 92       	push	r1
     cc6:	cd b7       	in	r28, 0x3d	; 61
     cc8:	de b7       	in	r29, 0x3e	; 62
     cca:	9b 83       	std	Y+3, r25	; 0x03
     ccc:	8a 83       	std	Y+2, r24	; 0x02
     cce:	7d 83       	std	Y+5, r23	; 0x05
     cd0:	6c 83       	std	Y+4, r22	; 0x04
		fsl::hw::simple_atomic lock;
     cd2:	ce 01       	movw	r24, r28
     cd4:	01 96       	adiw	r24, 0x01	; 1
     cd6:	0e 94 c9 00 	call	0x192	; 0x192 <_ZN3fsl2hw13simple_atomicC1Ev>
		if (unsafe_full()) return false;
     cda:	8a 81       	ldd	r24, Y+2	; 0x02
     cdc:	9b 81       	ldd	r25, Y+3	; 0x03
     cde:	0e 94 eb 06 	call	0xdd6	; 0xdd6 <_ZNK17brightness_bufferILh10EE11unsafe_fullEv>
     ce2:	88 23       	and	r24, r24
     ce4:	11 f0       	breq	.+4      	; 0xcea <_ZN17brightness_bufferILh10EE5writeERK10brightness+0x30>
     ce6:	10 e0       	ldi	r17, 0x00	; 0
     ce8:	52 c0       	rjmp	.+164    	; 0xd8e <_ZN17brightness_bufferILh10EE5writeERK10brightness+0xd4>
		_buffer[next_write++] = element;
     cea:	8a 81       	ldd	r24, Y+2	; 0x02
     cec:	9b 81       	ldd	r25, Y+3	; 0x03
     cee:	83 57       	subi	r24, 0x73	; 115
     cf0:	9f 4f       	sbci	r25, 0xFF	; 255
     cf2:	fc 01       	movw	r30, r24
     cf4:	20 81       	ld	r18, Z
     cf6:	31 e0       	ldi	r19, 0x01	; 1
     cf8:	32 0f       	add	r19, r18
     cfa:	8a 81       	ldd	r24, Y+2	; 0x02
     cfc:	9b 81       	ldd	r25, Y+3	; 0x03
     cfe:	83 57       	subi	r24, 0x73	; 115
     d00:	9f 4f       	sbci	r25, 0xFF	; 255
     d02:	fc 01       	movw	r30, r24
     d04:	30 83       	st	Z, r19
     d06:	82 2f       	mov	r24, r18
     d08:	90 e0       	ldi	r25, 0x00	; 0
     d0a:	9c 01       	movw	r18, r24
     d0c:	c9 01       	movw	r24, r18
     d0e:	88 0f       	add	r24, r24
     d10:	99 1f       	adc	r25, r25
     d12:	9c 01       	movw	r18, r24
     d14:	c9 01       	movw	r24, r18
     d16:	88 0f       	add	r24, r24
     d18:	99 1f       	adc	r25, r25
     d1a:	88 0f       	add	r24, r24
     d1c:	99 1f       	adc	r25, r25
     d1e:	88 0f       	add	r24, r24
     d20:	99 1f       	adc	r25, r25
     d22:	82 1b       	sub	r24, r18
     d24:	93 0b       	sbc	r25, r19
     d26:	2a 81       	ldd	r18, Y+2	; 0x02
     d28:	3b 81       	ldd	r19, Y+3	; 0x03
     d2a:	82 0f       	add	r24, r18
     d2c:	93 1f       	adc	r25, r19
     d2e:	2c 81       	ldd	r18, Y+4	; 0x04
     d30:	3d 81       	ldd	r19, Y+5	; 0x05
     d32:	b9 01       	movw	r22, r18
     d34:	0e 94 45 01 	call	0x28a	; 0x28a <_ZN10brightnessaSERKS_>
		++filled;
     d38:	8a 81       	ldd	r24, Y+2	; 0x02
     d3a:	9b 81       	ldd	r25, Y+3	; 0x03
     d3c:	82 57       	subi	r24, 0x72	; 114
     d3e:	9f 4f       	sbci	r25, 0xFF	; 255
     d40:	fc 01       	movw	r30, r24
     d42:	80 81       	ld	r24, Z
     d44:	21 e0       	ldi	r18, 0x01	; 1
     d46:	28 0f       	add	r18, r24
     d48:	8a 81       	ldd	r24, Y+2	; 0x02
     d4a:	9b 81       	ldd	r25, Y+3	; 0x03
     d4c:	82 57       	subi	r24, 0x72	; 114
     d4e:	9f 4f       	sbci	r25, 0xFF	; 255
     d50:	fc 01       	movw	r30, r24
     d52:	20 83       	st	Z, r18
		next_write %= _Buffer_Size;
     d54:	8a 81       	ldd	r24, Y+2	; 0x02
     d56:	9b 81       	ldd	r25, Y+3	; 0x03
     d58:	83 57       	subi	r24, 0x73	; 115
     d5a:	9f 4f       	sbci	r25, 0xFF	; 255
     d5c:	fc 01       	movw	r30, r24
     d5e:	90 81       	ld	r25, Z
     d60:	8d ec       	ldi	r24, 0xCD	; 205
     d62:	98 9f       	mul	r25, r24
     d64:	81 2d       	mov	r24, r1
     d66:	11 24       	eor	r1, r1
     d68:	28 2f       	mov	r18, r24
     d6a:	26 95       	lsr	r18
     d6c:	26 95       	lsr	r18
     d6e:	26 95       	lsr	r18
     d70:	82 2f       	mov	r24, r18
     d72:	88 0f       	add	r24, r24
     d74:	28 2f       	mov	r18, r24
     d76:	22 0f       	add	r18, r18
     d78:	22 0f       	add	r18, r18
     d7a:	82 0f       	add	r24, r18
     d7c:	29 2f       	mov	r18, r25
     d7e:	28 1b       	sub	r18, r24
     d80:	8a 81       	ldd	r24, Y+2	; 0x02
     d82:	9b 81       	ldd	r25, Y+3	; 0x03
     d84:	83 57       	subi	r24, 0x73	; 115
     d86:	9f 4f       	sbci	r25, 0xFF	; 255
     d88:	fc 01       	movw	r30, r24
     d8a:	20 83       	st	Z, r18
		return true;
     d8c:	11 e0       	ldi	r17, 0x01	; 1
		fsl::hw::simple_atomic lock;
		return unsafe_full();
	}
	
	bool write(const brightness& element){
		fsl::hw::simple_atomic lock;
     d8e:	ce 01       	movw	r24, r28
     d90:	01 96       	adiw	r24, 0x01	; 1
     d92:	0e 94 df 00 	call	0x1be	; 0x1be <_ZN3fsl2hw13simple_atomicD1Ev>
     d96:	81 2f       	mov	r24, r17
		if (unsafe_full()) return false;
		_buffer[next_write++] = element;
		++filled;
		next_write %= _Buffer_Size;
		return true;
	}
     d98:	0f 90       	pop	r0
     d9a:	0f 90       	pop	r0
     d9c:	0f 90       	pop	r0
     d9e:	0f 90       	pop	r0
     da0:	0f 90       	pop	r0
     da2:	df 91       	pop	r29
     da4:	cf 91       	pop	r28
     da6:	1f 91       	pop	r17
     da8:	08 95       	ret

00000daa <_ZNK17brightness_bufferILh10EE12unsafe_emptyEv>:
	uint8_t next_write{0};
	uint8_t filled{0};
	
	private:
	
	inline bool unsafe_empty() const {
     daa:	cf 93       	push	r28
     dac:	df 93       	push	r29
     dae:	00 d0       	rcall	.+0      	; 0xdb0 <_ZNK17brightness_bufferILh10EE12unsafe_emptyEv+0x6>
     db0:	cd b7       	in	r28, 0x3d	; 61
     db2:	de b7       	in	r29, 0x3e	; 62
     db4:	9a 83       	std	Y+2, r25	; 0x02
     db6:	89 83       	std	Y+1, r24	; 0x01
		return filled == 0;
     db8:	89 81       	ldd	r24, Y+1	; 0x01
     dba:	9a 81       	ldd	r25, Y+2	; 0x02
     dbc:	82 57       	subi	r24, 0x72	; 114
     dbe:	9f 4f       	sbci	r25, 0xFF	; 255
     dc0:	fc 01       	movw	r30, r24
     dc2:	90 81       	ld	r25, Z
     dc4:	81 e0       	ldi	r24, 0x01	; 1
     dc6:	99 23       	and	r25, r25
     dc8:	09 f0       	breq	.+2      	; 0xdcc <_ZNK17brightness_bufferILh10EE12unsafe_emptyEv+0x22>
     dca:	80 e0       	ldi	r24, 0x00	; 0
	}
     dcc:	0f 90       	pop	r0
     dce:	0f 90       	pop	r0
     dd0:	df 91       	pop	r29
     dd2:	cf 91       	pop	r28
     dd4:	08 95       	ret

00000dd6 <_ZNK17brightness_bufferILh10EE11unsafe_fullEv>:
	inline bool unsafe_full() const {
     dd6:	cf 93       	push	r28
     dd8:	df 93       	push	r29
     dda:	00 d0       	rcall	.+0      	; 0xddc <_ZNK17brightness_bufferILh10EE11unsafe_fullEv+0x6>
     ddc:	cd b7       	in	r28, 0x3d	; 61
     dde:	de b7       	in	r29, 0x3e	; 62
     de0:	9a 83       	std	Y+2, r25	; 0x02
     de2:	89 83       	std	Y+1, r24	; 0x01
		return filled == _Buffer_Size;
     de4:	89 81       	ldd	r24, Y+1	; 0x01
     de6:	9a 81       	ldd	r25, Y+2	; 0x02
     de8:	82 57       	subi	r24, 0x72	; 114
     dea:	9f 4f       	sbci	r25, 0xFF	; 255
     dec:	fc 01       	movw	r30, r24
     dee:	90 81       	ld	r25, Z
     df0:	81 e0       	ldi	r24, 0x01	; 1
     df2:	9a 30       	cpi	r25, 0x0A	; 10
     df4:	09 f0       	breq	.+2      	; 0xdf8 <_ZNK17brightness_bufferILh10EE11unsafe_fullEv+0x22>
     df6:	80 e0       	ldi	r24, 0x00	; 0
	}
     df8:	0f 90       	pop	r0
     dfa:	0f 90       	pop	r0
     dfc:	df 91       	pop	r29
     dfe:	cf 91       	pop	r28
     e00:	08 95       	ret

00000e02 <_Z41__static_initialization_and_destruction_0ii>:
	update_led();
	}
	*/
	
	
     e02:	cf 93       	push	r28
     e04:	df 93       	push	r29
     e06:	00 d0       	rcall	.+0      	; 0xe08 <_Z41__static_initialization_and_destruction_0ii+0x6>
     e08:	00 d0       	rcall	.+0      	; 0xe0a <_Z41__static_initialization_and_destruction_0ii+0x8>
     e0a:	cd b7       	in	r28, 0x3d	; 61
     e0c:	de b7       	in	r29, 0x3e	; 62
     e0e:	9a 83       	std	Y+2, r25	; 0x02
     e10:	89 83       	std	Y+1, r24	; 0x01
     e12:	7c 83       	std	Y+4, r23	; 0x04
     e14:	6b 83       	std	Y+3, r22	; 0x03
     e16:	89 81       	ldd	r24, Y+1	; 0x01
     e18:	9a 81       	ldd	r25, Y+2	; 0x02
     e1a:	01 97       	sbiw	r24, 0x01	; 1
     e1c:	71 f4       	brne	.+28     	; 0xe3a <_Z41__static_initialization_and_destruction_0ii+0x38>
     e1e:	8b 81       	ldd	r24, Y+3	; 0x03
     e20:	9c 81       	ldd	r25, Y+4	; 0x04
     e22:	01 96       	adiw	r24, 0x01	; 1
     e24:	51 f4       	brne	.+20     	; 0xe3a <_Z41__static_initialization_and_destruction_0ii+0x38>
	PORTB &= ~0b0000'0001;
	DDRD = 0b11111111; // out arc
	DDRB |= 0b00000001; //
}

human_clock& the_clock{ human_clock::instance() };
     e26:	0e 94 61 00 	call	0xc2	; 0xc2 <_ZN11human_clock8instanceEv>
     e2a:	90 93 43 01 	sts	0x0143, r25	; 0x800143 <the_clock+0x1>
     e2e:	80 93 42 01 	sts	0x0142, r24	; 0x800142 <the_clock>
	
	static brightness_buffer<10> buffer;
	
};

brightness_buffer<10> bulb::buffer;
     e32:	84 e4       	ldi	r24, 0x44	; 68
     e34:	91 e0       	ldi	r25, 0x01	; 1
     e36:	0e 94 88 01 	call	0x310	; 0x310 <_ZN17brightness_bufferILh10EEC1Ev>
	update_led();
	}
	*/
	
	
     e3a:	00 00       	nop
     e3c:	0f 90       	pop	r0
     e3e:	0f 90       	pop	r0
     e40:	0f 90       	pop	r0
     e42:	0f 90       	pop	r0
     e44:	df 91       	pop	r29
     e46:	cf 91       	pop	r28
     e48:	08 95       	ret

00000e4a <_GLOBAL__sub_I__Z8pin_initv>:
     e4a:	cf 93       	push	r28
     e4c:	df 93       	push	r29
     e4e:	cd b7       	in	r28, 0x3d	; 61
     e50:	de b7       	in	r29, 0x3e	; 62
     e52:	6f ef       	ldi	r22, 0xFF	; 255
     e54:	7f ef       	ldi	r23, 0xFF	; 255
     e56:	81 e0       	ldi	r24, 0x01	; 1
     e58:	90 e0       	ldi	r25, 0x00	; 0
     e5a:	0e 94 01 07 	call	0xe02	; 0xe02 <_Z41__static_initialization_and_destruction_0ii>
     e5e:	df 91       	pop	r29
     e60:	cf 91       	pop	r28
     e62:	08 95       	ret

00000e64 <_ZN4pumpC1Ev>:
#include "hardware_entities.h"
#include "time_utilities.h"
#include "display.h"
#include "queue.h"

class pump {
     e64:	cf 93       	push	r28
     e66:	df 93       	push	r29
     e68:	00 d0       	rcall	.+0      	; 0xe6a <_ZN4pumpC1Ev+0x6>
     e6a:	cd b7       	in	r28, 0x3d	; 61
     e6c:	de b7       	in	r29, 0x3e	; 62
     e6e:	9a 83       	std	Y+2, r25	; 0x02
     e70:	89 83       	std	Y+1, r24	; 0x01
     e72:	89 81       	ldd	r24, Y+1	; 0x01
     e74:	9a 81       	ldd	r25, Y+2	; 0x02
     e76:	fc 01       	movw	r30, r24
     e78:	10 82       	st	Z, r1
     e7a:	89 81       	ldd	r24, Y+1	; 0x01
     e7c:	9a 81       	ldd	r25, Y+2	; 0x02
     e7e:	fc 01       	movw	r30, r24
     e80:	11 82       	std	Z+1, r1	; 0x01
     e82:	89 81       	ldd	r24, Y+1	; 0x01
     e84:	9a 81       	ldd	r25, Y+2	; 0x02
     e86:	fc 01       	movw	r30, r24
     e88:	12 82       	std	Z+2, r1	; 0x02
     e8a:	89 81       	ldd	r24, Y+1	; 0x01
     e8c:	9a 81       	ldd	r25, Y+2	; 0x02
     e8e:	fc 01       	movw	r30, r24
     e90:	13 82       	std	Z+3, r1	; 0x03
     e92:	89 81       	ldd	r24, Y+1	; 0x01
     e94:	9a 81       	ldd	r25, Y+2	; 0x02
     e96:	fc 01       	movw	r30, r24
     e98:	15 82       	std	Z+5, r1	; 0x05
     e9a:	89 81       	ldd	r24, Y+1	; 0x01
     e9c:	9a 81       	ldd	r25, Y+2	; 0x02
     e9e:	fc 01       	movw	r30, r24
     ea0:	16 82       	std	Z+6, r1	; 0x06
     ea2:	fc 01       	movw	r30, r24
     ea4:	17 82       	std	Z+7, r1	; 0x07
     ea6:	fc 01       	movw	r30, r24
     ea8:	10 86       	std	Z+8, r1	; 0x08
     eaa:	fc 01       	movw	r30, r24
     eac:	11 86       	std	Z+9, r1	; 0x09
     eae:	fc 01       	movw	r30, r24
     eb0:	12 86       	std	Z+10, r1	; 0x0a
     eb2:	fc 01       	movw	r30, r24
     eb4:	13 86       	std	Z+11, r1	; 0x0b
     eb6:	fc 01       	movw	r30, r24
     eb8:	14 86       	std	Z+12, r1	; 0x0c
     eba:	fc 01       	movw	r30, r24
     ebc:	15 86       	std	Z+13, r1	; 0x0d
     ebe:	00 00       	nop
     ec0:	0f 90       	pop	r0
     ec2:	0f 90       	pop	r0
     ec4:	df 91       	pop	r29
     ec6:	cf 91       	pop	r28
     ec8:	08 95       	ret

00000eca <_Z41__static_initialization_and_destruction_0ii>:

#include "pump.h"

pump the_pump;

bool pump::recovery_enable{ false };
     eca:	cf 93       	push	r28
     ecc:	df 93       	push	r29
     ece:	00 d0       	rcall	.+0      	; 0xed0 <_Z41__static_initialization_and_destruction_0ii+0x6>
     ed0:	00 d0       	rcall	.+0      	; 0xed2 <_Z41__static_initialization_and_destruction_0ii+0x8>
     ed2:	cd b7       	in	r28, 0x3d	; 61
     ed4:	de b7       	in	r29, 0x3e	; 62
     ed6:	9a 83       	std	Y+2, r25	; 0x02
     ed8:	89 83       	std	Y+1, r24	; 0x01
     eda:	7c 83       	std	Y+4, r23	; 0x04
     edc:	6b 83       	std	Y+3, r22	; 0x03
     ede:	89 81       	ldd	r24, Y+1	; 0x01
     ee0:	9a 81       	ldd	r25, Y+2	; 0x02
     ee2:	01 97       	sbiw	r24, 0x01	; 1
     ee4:	41 f4       	brne	.+16     	; 0xef6 <_Z41__static_initialization_and_destruction_0ii+0x2c>
     ee6:	8b 81       	ldd	r24, Y+3	; 0x03
     ee8:	9c 81       	ldd	r25, Y+4	; 0x04
     eea:	01 96       	adiw	r24, 0x01	; 1
     eec:	21 f4       	brne	.+8      	; 0xef6 <_Z41__static_initialization_and_destruction_0ii+0x2c>
*/


#include "pump.h"

pump the_pump;
     eee:	84 ed       	ldi	r24, 0xD4	; 212
     ef0:	91 e0       	ldi	r25, 0x01	; 1
     ef2:	0e 94 32 07 	call	0xe64	; 0xe64 <_ZN4pumpC1Ev>

bool pump::recovery_enable{ false };
     ef6:	00 00       	nop
     ef8:	0f 90       	pop	r0
     efa:	0f 90       	pop	r0
     efc:	0f 90       	pop	r0
     efe:	0f 90       	pop	r0
     f00:	df 91       	pop	r29
     f02:	cf 91       	pop	r28
     f04:	08 95       	ret

00000f06 <_GLOBAL__sub_I_the_pump>:
     f06:	cf 93       	push	r28
     f08:	df 93       	push	r29
     f0a:	cd b7       	in	r28, 0x3d	; 61
     f0c:	de b7       	in	r29, 0x3e	; 62
     f0e:	6f ef       	ldi	r22, 0xFF	; 255
     f10:	7f ef       	ldi	r23, 0xFF	; 255
     f12:	81 e0       	ldi	r24, 0x01	; 1
     f14:	90 e0       	ldi	r25, 0x00	; 0
     f16:	0e 94 65 07 	call	0xeca	; 0xeca <_Z41__static_initialization_and_destruction_0ii>
     f1a:	df 91       	pop	r29
     f1c:	cf 91       	pop	r28
     f1e:	08 95       	ret

00000f20 <_ZN5queueC1Ev>:
	if (!valid_items) return;
	turn_on_ventile(items[0].ventile);
	switch_off_time = human_clock::instance().now() + items[0].minutes * human_clock::MINUTE;
	for (uint8_t i = 0; i + 1 < 6; ++i) items[i] = items[i+1];
	--valid_items;
}
     f20:	cf 93       	push	r28
     f22:	df 93       	push	r29
     f24:	00 d0       	rcall	.+0      	; 0xf26 <_ZN5queueC1Ev+0x6>
     f26:	cd b7       	in	r28, 0x3d	; 61
     f28:	de b7       	in	r29, 0x3e	; 62
     f2a:	9a 83       	std	Y+2, r25	; 0x02
     f2c:	89 83       	std	Y+1, r24	; 0x01
     f2e:	89 81       	ldd	r24, Y+1	; 0x01
     f30:	9a 81       	ldd	r25, Y+2	; 0x02
     f32:	fc 01       	movw	r30, r24
     f34:	14 86       	std	Z+12, r1	; 0x0c
     f36:	89 81       	ldd	r24, Y+1	; 0x01
     f38:	9a 81       	ldd	r25, Y+2	; 0x02
     f3a:	fc 01       	movw	r30, r24
     f3c:	15 86       	std	Z+13, r1	; 0x0d
     f3e:	fc 01       	movw	r30, r24
     f40:	16 86       	std	Z+14, r1	; 0x0e
     f42:	fc 01       	movw	r30, r24
     f44:	17 86       	std	Z+15, r1	; 0x0f
     f46:	fc 01       	movw	r30, r24
     f48:	10 8a       	std	Z+16, r1	; 0x10
     f4a:	fc 01       	movw	r30, r24
     f4c:	11 8a       	std	Z+17, r1	; 0x11
     f4e:	fc 01       	movw	r30, r24
     f50:	12 8a       	std	Z+18, r1	; 0x12
     f52:	fc 01       	movw	r30, r24
     f54:	13 8a       	std	Z+19, r1	; 0x13
     f56:	fc 01       	movw	r30, r24
     f58:	14 8a       	std	Z+20, r1	; 0x14
     f5a:	89 81       	ldd	r24, Y+1	; 0x01
     f5c:	9a 81       	ldd	r25, Y+2	; 0x02
     f5e:	fc 01       	movw	r30, r24
     f60:	15 8a       	std	Z+21, r1	; 0x15
     f62:	00 00       	nop
     f64:	0f 90       	pop	r0
     f66:	0f 90       	pop	r0
     f68:	df 91       	pop	r29
     f6a:	cf 91       	pop	r28
     f6c:	08 95       	ret

00000f6e <_Z41__static_initialization_and_destruction_0ii>:
     f6e:	cf 93       	push	r28
     f70:	df 93       	push	r29
     f72:	00 d0       	rcall	.+0      	; 0xf74 <_Z41__static_initialization_and_destruction_0ii+0x6>
     f74:	00 d0       	rcall	.+0      	; 0xf76 <_Z41__static_initialization_and_destruction_0ii+0x8>
     f76:	cd b7       	in	r28, 0x3d	; 61
     f78:	de b7       	in	r29, 0x3e	; 62
     f7a:	9a 83       	std	Y+2, r25	; 0x02
     f7c:	89 83       	std	Y+1, r24	; 0x01
     f7e:	7c 83       	std	Y+4, r23	; 0x04
     f80:	6b 83       	std	Y+3, r22	; 0x03
     f82:	89 81       	ldd	r24, Y+1	; 0x01
     f84:	9a 81       	ldd	r25, Y+2	; 0x02
     f86:	01 97       	sbiw	r24, 0x01	; 1
     f88:	41 f4       	brne	.+16     	; 0xf9a <_Z41__static_initialization_and_destruction_0ii+0x2c>
     f8a:	8b 81       	ldd	r24, Y+3	; 0x03
     f8c:	9c 81       	ldd	r25, Y+4	; 0x04
     f8e:	01 96       	adiw	r24, 0x01	; 1
     f90:	21 f4       	brne	.+8      	; 0xf9a <_Z41__static_initialization_and_destruction_0ii+0x2c>
#include "queue.h"

#include "pump.h"


queue the_queue;
     f92:	82 ee       	ldi	r24, 0xE2	; 226
     f94:	91 e0       	ldi	r25, 0x01	; 1
     f96:	0e 94 90 07 	call	0xf20	; 0xf20 <_ZN5queueC1Ev>
	if (!valid_items) return;
	turn_on_ventile(items[0].ventile);
	switch_off_time = human_clock::instance().now() + items[0].minutes * human_clock::MINUTE;
	for (uint8_t i = 0; i + 1 < 6; ++i) items[i] = items[i+1];
	--valid_items;
}
     f9a:	00 00       	nop
     f9c:	0f 90       	pop	r0
     f9e:	0f 90       	pop	r0
     fa0:	0f 90       	pop	r0
     fa2:	0f 90       	pop	r0
     fa4:	df 91       	pop	r29
     fa6:	cf 91       	pop	r28
     fa8:	08 95       	ret

00000faa <_GLOBAL__sub_I_the_queue>:
     faa:	cf 93       	push	r28
     fac:	df 93       	push	r29
     fae:	cd b7       	in	r28, 0x3d	; 61
     fb0:	de b7       	in	r29, 0x3e	; 62
     fb2:	6f ef       	ldi	r22, 0xFF	; 255
     fb4:	7f ef       	ldi	r23, 0xFF	; 255
     fb6:	81 e0       	ldi	r24, 0x01	; 1
     fb8:	90 e0       	ldi	r25, 0x00	; 0
     fba:	0e 94 b7 07 	call	0xf6e	; 0xf6e <_Z41__static_initialization_and_destruction_0ii>
     fbe:	df 91       	pop	r29
     fc0:	cf 91       	pop	r28
     fc2:	08 95       	ret

00000fc4 <__vector_14>:

#include "timer0.h"

procedure TCNT0_COMPARE_A = nullptr;

ISR(TIMER0_COMPA_vect){
     fc4:	1f 92       	push	r1
     fc6:	0f 92       	push	r0
     fc8:	00 90 5f 00 	lds	r0, 0x005F	; 0x80005f <__TEXT_REGION_LENGTH__+0x7e005f>
     fcc:	0f 92       	push	r0
     fce:	11 24       	eor	r1, r1
     fd0:	2f 93       	push	r18
     fd2:	3f 93       	push	r19
     fd4:	4f 93       	push	r20
     fd6:	5f 93       	push	r21
     fd8:	6f 93       	push	r22
     fda:	7f 93       	push	r23
     fdc:	8f 93       	push	r24
     fde:	9f 93       	push	r25
     fe0:	af 93       	push	r26
     fe2:	bf 93       	push	r27
     fe4:	ef 93       	push	r30
     fe6:	ff 93       	push	r31
     fe8:	cf 93       	push	r28
     fea:	df 93       	push	r29
     fec:	cd b7       	in	r28, 0x3d	; 61
     fee:	de b7       	in	r29, 0x3e	; 62
	if (TCNT0_COMPARE_A) TCNT0_COMPARE_A();
     ff0:	80 91 f8 01 	lds	r24, 0x01F8	; 0x8001f8 <TCNT0_COMPARE_A>
     ff4:	90 91 f9 01 	lds	r25, 0x01F9	; 0x8001f9 <TCNT0_COMPARE_A+0x1>
     ff8:	89 2b       	or	r24, r25
     ffa:	31 f0       	breq	.+12     	; 0x1008 <__vector_14+0x44>
     ffc:	80 91 f8 01 	lds	r24, 0x01F8	; 0x8001f8 <TCNT0_COMPARE_A>
    1000:	90 91 f9 01 	lds	r25, 0x01F9	; 0x8001f9 <TCNT0_COMPARE_A+0x1>
    1004:	fc 01       	movw	r30, r24
    1006:	09 95       	icall
}
    1008:	00 00       	nop
    100a:	df 91       	pop	r29
    100c:	cf 91       	pop	r28
    100e:	ff 91       	pop	r31
    1010:	ef 91       	pop	r30
    1012:	bf 91       	pop	r27
    1014:	af 91       	pop	r26
    1016:	9f 91       	pop	r25
    1018:	8f 91       	pop	r24
    101a:	7f 91       	pop	r23
    101c:	6f 91       	pop	r22
    101e:	5f 91       	pop	r21
    1020:	4f 91       	pop	r20
    1022:	3f 91       	pop	r19
    1024:	2f 91       	pop	r18
    1026:	0f 90       	pop	r0
    1028:	00 92 5f 00 	sts	0x005F, r0	; 0x80005f <__TEXT_REGION_LENGTH__+0x7e005f>
    102c:	0f 90       	pop	r0
    102e:	1f 90       	pop	r1
    1030:	18 95       	reti

00001032 <__vector_11>:

procedure TCNT1_COMPARE_A = nullptr;

ISR(TIMER1_COMPA_vect){
    1032:	1f 92       	push	r1
    1034:	0f 92       	push	r0
    1036:	00 90 5f 00 	lds	r0, 0x005F	; 0x80005f <__TEXT_REGION_LENGTH__+0x7e005f>
    103a:	0f 92       	push	r0
    103c:	11 24       	eor	r1, r1
    103e:	2f 93       	push	r18
    1040:	3f 93       	push	r19
    1042:	4f 93       	push	r20
    1044:	5f 93       	push	r21
    1046:	6f 93       	push	r22
    1048:	7f 93       	push	r23
    104a:	8f 93       	push	r24
    104c:	9f 93       	push	r25
    104e:	af 93       	push	r26
    1050:	bf 93       	push	r27
    1052:	ef 93       	push	r30
    1054:	ff 93       	push	r31
    1056:	cf 93       	push	r28
    1058:	df 93       	push	r29
    105a:	cd b7       	in	r28, 0x3d	; 61
    105c:	de b7       	in	r29, 0x3e	; 62
	if (TCNT1_COMPARE_A) TCNT1_COMPARE_A();
    105e:	80 91 fa 01 	lds	r24, 0x01FA	; 0x8001fa <TCNT1_COMPARE_A>
    1062:	90 91 fb 01 	lds	r25, 0x01FB	; 0x8001fb <TCNT1_COMPARE_A+0x1>
    1066:	89 2b       	or	r24, r25
    1068:	31 f0       	breq	.+12     	; 0x1076 <__vector_11+0x44>
    106a:	80 91 fa 01 	lds	r24, 0x01FA	; 0x8001fa <TCNT1_COMPARE_A>
    106e:	90 91 fb 01 	lds	r25, 0x01FB	; 0x8001fb <TCNT1_COMPARE_A+0x1>
    1072:	fc 01       	movw	r30, r24
    1074:	09 95       	icall
}
    1076:	00 00       	nop
    1078:	df 91       	pop	r29
    107a:	cf 91       	pop	r28
    107c:	ff 91       	pop	r31
    107e:	ef 91       	pop	r30
    1080:	bf 91       	pop	r27
    1082:	af 91       	pop	r26
    1084:	9f 91       	pop	r25
    1086:	8f 91       	pop	r24
    1088:	7f 91       	pop	r23
    108a:	6f 91       	pop	r22
    108c:	5f 91       	pop	r21
    108e:	4f 91       	pop	r20
    1090:	3f 91       	pop	r19
    1092:	2f 91       	pop	r18
    1094:	0f 90       	pop	r0
    1096:	00 92 5f 00 	sts	0x005F, r0	; 0x80005f <__TEXT_REGION_LENGTH__+0x7e005f>
    109a:	0f 90       	pop	r0
    109c:	1f 90       	pop	r1
    109e:	18 95       	reti

000010a0 <__udivmodqi4>:
    10a0:	99 1b       	sub	r25, r25
    10a2:	79 e0       	ldi	r23, 0x09	; 9
    10a4:	04 c0       	rjmp	.+8      	; 0x10ae <__udivmodqi4_ep>

000010a6 <__udivmodqi4_loop>:
    10a6:	99 1f       	adc	r25, r25
    10a8:	96 17       	cp	r25, r22
    10aa:	08 f0       	brcs	.+2      	; 0x10ae <__udivmodqi4_ep>
    10ac:	96 1b       	sub	r25, r22

000010ae <__udivmodqi4_ep>:
    10ae:	88 1f       	adc	r24, r24
    10b0:	7a 95       	dec	r23
    10b2:	c9 f7       	brne	.-14     	; 0x10a6 <__udivmodqi4_loop>
    10b4:	80 95       	com	r24
    10b6:	08 95       	ret

000010b8 <__umulhisi3>:
    10b8:	a2 9f       	mul	r26, r18
    10ba:	b0 01       	movw	r22, r0
    10bc:	b3 9f       	mul	r27, r19
    10be:	c0 01       	movw	r24, r0
    10c0:	a3 9f       	mul	r26, r19
    10c2:	70 0d       	add	r23, r0
    10c4:	81 1d       	adc	r24, r1
    10c6:	11 24       	eor	r1, r1
    10c8:	91 1d       	adc	r25, r1
    10ca:	b2 9f       	mul	r27, r18
    10cc:	70 0d       	add	r23, r0
    10ce:	81 1d       	adc	r24, r1
    10d0:	11 24       	eor	r1, r1
    10d2:	91 1d       	adc	r25, r1
    10d4:	08 95       	ret

000010d6 <__tablejump2__>:
    10d6:	ee 0f       	add	r30, r30
    10d8:	ff 1f       	adc	r31, r31
    10da:	05 90       	lpm	r0, Z+
    10dc:	f4 91       	lpm	r31, Z
    10de:	e0 2d       	mov	r30, r0
    10e0:	09 94       	ijmp

000010e2 <_exit>:
    10e2:	f8 94       	cli

000010e4 <__stop_program>:
    10e4:	ff cf       	rjmp	.-2      	; 0x10e4 <__stop_program>
